     1 00000000                                 [FORMAT "WCOFF"]
     2 00000000                                 [INSTRSET "i486p"]
     3 00000000                                 [OPTIMIZE 1]
     4 00000000                                 [OPTION 1]
     5 00000000                                 [BITS 32]
     6 00000000                                 	EXTERN	_init_gdtidt
     7 00000000                                 	EXTERN	_init_pic
     8 00000000                                 	EXTERN	_io_sti
     9 00000000                                 	EXTERN	_init_pit
    10 00000000                                 	EXTERN	_Allow_InterruptMask
    11 00000000                                 	EXTERN	_memtest
    12 00000000                                 	EXTERN	_memman_init
    13 00000000                                 	EXTERN	_memman_free
    14 00000000                                 	EXTERN	_memman_alloc_4K
    15 00000000                                 	EXTERN	_init_palette
    16 00000000                                 	EXTERN	_sheet
    17 00000000                                 	EXTERN	_fifo32_init
    18 00000000                                 	EXTERN	_init_keyboard
    19 00000000                                 	EXTERN	_enable_mouse
    20 00000000                                 	EXTERN	_fifo32_put
    21 00000000                                 	EXTERN	_Command_int
    22 00000000                                 	EXTERN	_timer_alloc
    23 00000000                                 	EXTERN	_timer_init
    24 00000000                                 	EXTERN	_timer_settime
    25 00000000                                 	EXTERN	_task_init
    26 00000000                                 	EXTERN	_task_run
    27 00000000                                 	EXTERN	_Make_Win1
    28 00000000                                 	EXTERN	_Sel_window
    29 00000000                                 	EXTERN	_Make_Console
    30 00000000                                 	EXTERN	_task_alloc
    31 00000000                                 	EXTERN	_console_task
    32 00000000                                 	EXTERN	_updown_mouse
    33 00000000                                 	EXTERN	_fifo32_status
    34 00000000                                 	EXTERN	_io_cli
    35 00000000                                 	EXTERN	_fifo32_get
    36 00000000                                 	EXTERN	_boxfill8
    37 00000000                                 	EXTERN	_sheet_refresh
    38 00000000                                 	EXTERN	_mouse_decode
    39 00000000                                 	EXTERN	_sheet_slide
    40 00000000                                 	EXTERN	_sheet_updown
    41 00000000                                 	EXTERN	_keytable0.1
    42 00000000                                 	EXTERN	_putfonts8_asc_sht
    43 00000000                                 	EXTERN	_wait_KBC_sendready
    44 00000000                                 	EXTERN	_io_out8
    45 00000000                                 	EXTERN	_cons_putstr
    46 00000000                                 	EXTERN	_asm_end_app
    47 00000000                                 	EXTERN	_Sel_Console
    48 00000000                                 	EXTERN	_keytable1.2
    49 00000000                                 	EXTERN	_task_sleep
    50 00000000                                 	EXTERN	_sprintf
    51 00000000                                 [FILE "bootpack.c"]
    52                                          [SECTION .data]
    53 00000000                                 _keytable.0:
    54 00000000 00                              	DB	0
    55 00000001 00                              	DB	0
    56 00000002 31                              	DB	49
    57 00000003 32                              	DB	50
    58 00000004 33                              	DB	51
    59 00000005 34                              	DB	52
    60 00000006 35                              	DB	53
    61 00000007 36                              	DB	54
    62 00000008 37                              	DB	55
    63 00000009 38                              	DB	56
    64 0000000A 39                              	DB	57
    65 0000000B 30                              	DB	48
    66 0000000C 2D                              	DB	45
    67 0000000D 5E                              	DB	94
    68 0000000E 00                              	DB	0
    69 0000000F 00                              	DB	0
    70 00000010 51                              	DB	81
    71 00000011 57                              	DB	87
    72 00000012 45                              	DB	69
    73 00000013 52                              	DB	82
    74 00000014 54                              	DB	84
    75 00000015 59                              	DB	89
    76 00000016 55                              	DB	85
    77 00000017 49                              	DB	73
    78 00000018 4F                              	DB	79
    79 00000019 50                              	DB	80
    80 0000001A 40                              	DB	64
    81 0000001B 5B                              	DB	91
    82 0000001C 00                              	DB	0
    83 0000001D 00                              	DB	0
    84 0000001E 41                              	DB	65
    85 0000001F 53                              	DB	83
    86 00000020 44                              	DB	68
    87 00000021 46                              	DB	70
    88 00000022 47                              	DB	71
    89 00000023 48                              	DB	72
    90 00000024 4A                              	DB	74
    91 00000025 4B                              	DB	75
    92 00000026 4C                              	DB	76
    93 00000027 3B                              	DB	59
    94 00000028 3A                              	DB	58
    95 00000029 00                              	DB	0
    96 0000002A 00                              	DB	0
    97 0000002B 5D                              	DB	93
    98 0000002C 5A                              	DB	90
    99 0000002D 58                              	DB	88
   100 0000002E 43                              	DB	67
   101 0000002F 56                              	DB	86
   102 00000030 42                              	DB	66
   103 00000031 4E                              	DB	78
   104 00000032 4D                              	DB	77
   105 00000033 2C                              	DB	44
   106 00000034 2E                              	DB	46
   107 00000035 2F                              	DB	47
   108 00000036 00                              	DB	0
   109 00000037 2A                              	DB	42
   110 00000038 00                              	DB	0
   111 00000039 20                              	DB	32
   112 0000003A 00                              	DB	0
   113 0000003B 00                              	DB	0
   114 0000003C 00                              	DB	0
   115 0000003D 00                              	DB	0
   116 0000003E 00                              	DB	0
   117 0000003F 00                              	DB	0
   118 00000040 00                              	DB	0
   119 00000041 00                              	DB	0
   120 00000042 00                              	DB	0
   121 00000043 00                              	DB	0
   122 00000044 00                              	DB	0
   123 00000045 00                              	DB	0
   124 00000046 00                              	DB	0
   125 00000047 37                              	DB	55
   126 00000048 38                              	DB	56
   127 00000049 39                              	DB	57
   128 0000004A 2D                              	DB	45
   129 0000004B 34                              	DB	52
   130 0000004C 35                              	DB	53
   131 0000004D 36                              	DB	54
   132 0000004E 2B                              	DB	43
   133 0000004F 31                              	DB	49
   134 00000050 32                              	DB	50
   135 00000051 33                              	DB	51
   136 00000052 30                              	DB	48
   137 00000053 2E                              	DB	46
   138 00000054                                 _keytable0.1:
   139 00000054 00                              	DB	0
   140 00000055 00                              	DB	0
   141 00000056 31                              	DB	49
   142 00000057 32                              	DB	50
   143 00000058 33                              	DB	51
   144 00000059 34                              	DB	52
   145 0000005A 35                              	DB	53
   146 0000005B 36                              	DB	54
   147 0000005C 37                              	DB	55
   148 0000005D 38                              	DB	56
   149 0000005E 39                              	DB	57
   150 0000005F 30                              	DB	48
   151 00000060 2D                              	DB	45
   152 00000061 5E                              	DB	94
   153 00000062 00                              	DB	0
   154 00000063 00                              	DB	0
   155 00000064 51                              	DB	81
   156 00000065 57                              	DB	87
   157 00000066 45                              	DB	69
   158 00000067 52                              	DB	82
   159 00000068 54                              	DB	84
   160 00000069 59                              	DB	89
   161 0000006A 55                              	DB	85
   162 0000006B 49                              	DB	73
   163 0000006C 4F                              	DB	79
   164 0000006D 50                              	DB	80
   165 0000006E 40                              	DB	64
   166 0000006F 5B                              	DB	91
   167 00000070 00                              	DB	0
   168 00000071 00                              	DB	0
   169 00000072 41                              	DB	65
   170 00000073 53                              	DB	83
   171 00000074 44                              	DB	68
   172 00000075 46                              	DB	70
   173 00000076 47                              	DB	71
   174 00000077 48                              	DB	72
   175 00000078 4A                              	DB	74
   176 00000079 4B                              	DB	75
   177 0000007A 4C                              	DB	76
   178 0000007B 3B                              	DB	59
   179 0000007C 3A                              	DB	58
   180 0000007D 00                              	DB	0
   181 0000007E 00                              	DB	0
   182 0000007F 5D                              	DB	93
   183 00000080 5A                              	DB	90
   184 00000081 58                              	DB	88
   185 00000082 43                              	DB	67
   186 00000083 56                              	DB	86
   187 00000084 42                              	DB	66
   188 00000085 4E                              	DB	78
   189 00000086 4D                              	DB	77
   190 00000087 2C                              	DB	44
   191 00000088 2E                              	DB	46
   192 00000089 2F                              	DB	47
   193 0000008A 00                              	DB	0
   194 0000008B 2A                              	DB	42
   195 0000008C 00                              	DB	0
   196 0000008D 20                              	DB	32
   197 0000008E 00                              	DB	0
   198 0000008F 00                              	DB	0
   199 00000090 00                              	DB	0
   200 00000091 00                              	DB	0
   201 00000092 00                              	DB	0
   202 00000093 00                              	DB	0
   203 00000094 00                              	DB	0
   204 00000095 00                              	DB	0
   205 00000096 00                              	DB	0
   206 00000097 00                              	DB	0
   207 00000098 00                              	DB	0
   208 00000099 00                              	DB	0
   209 0000009A 00                              	DB	0
   210 0000009B 37                              	DB	55
   211 0000009C 38                              	DB	56
   212 0000009D 39                              	DB	57
   213 0000009E 2D                              	DB	45
   214 0000009F 34                              	DB	52
   215 000000A0 35                              	DB	53
   216 000000A1 36                              	DB	54
   217 000000A2 2B                              	DB	43
   218 000000A3 31                              	DB	49
   219 000000A4 32                              	DB	50
   220 000000A5 33                              	DB	51
   221 000000A6 30                              	DB	48
   222 000000A7 2E                              	DB	46
   223 000000A8 00                              	DB	0
   224 000000A9 00                              	DB	0
   225 000000AA 00                              	DB	0
   226 000000AB 00                              	DB	0
   227 000000AC 00                              	DB	0
   228 000000AD 00                              	DB	0
   229 000000AE 00                              	DB	0
   230 000000AF 00                              	DB	0
   231 000000B0 00                              	DB	0
   232 000000B1 00                              	DB	0
   233 000000B2 00                              	DB	0
   234 000000B3 00                              	DB	0
   235 000000B4 00                              	DB	0
   236 000000B5 00                              	DB	0
   237 000000B6 00                              	DB	0
   238 000000B7 00                              	DB	0
   239 000000B8 00                              	DB	0
   240 000000B9 00                              	DB	0
   241 000000BA 00                              	DB	0
   242 000000BB 00                              	DB	0
   243 000000BC 00                              	DB	0
   244 000000BD 00                              	DB	0
   245 000000BE 00                              	DB	0
   246 000000BF 00                              	DB	0
   247 000000C0 00                              	DB	0
   248 000000C1 00                              	DB	0
   249 000000C2 00                              	DB	0
   250 000000C3 00                              	DB	0
   251 000000C4 00                              	DB	0
   252 000000C5 00                              	DB	0
   253 000000C6 00                              	DB	0
   254 000000C7 5C                              	DB	92
   255 000000C8 00                              	DB	0
   256 000000C9 00                              	DB	0
   257 000000CA 00                              	DB	0
   258 000000CB 00                              	DB	0
   259 000000CC 00                              	DB	0
   260 000000CD 00                              	DB	0
   261 000000CE 00                              	DB	0
   262 000000CF 00                              	DB	0
   263 000000D0 00                              	DB	0
   264 000000D1 5C                              	DB	92
   265 000000D2 00                              	DB	0
   266 000000D3 00                              	DB	0
   267 000000D4                                 _keytable1.2:
   268 000000D4 00                              	DB	0
   269 000000D5 00                              	DB	0
   270 000000D6 21                              	DB	33
   271 000000D7 22                              	DB	34
   272 000000D8 23                              	DB	35
   273 000000D9 24                              	DB	36
   274 000000DA 25                              	DB	37
   275 000000DB 26                              	DB	38
   276 000000DC 27                              	DB	39
   277 000000DD 28                              	DB	40
   278 000000DE 29                              	DB	41
   279 000000DF 7E                              	DB	126
   280 000000E0 3D                              	DB	61
   281 000000E1 7E                              	DB	126
   282 000000E2 00                              	DB	0
   283 000000E3 00                              	DB	0
   284 000000E4 51                              	DB	81
   285 000000E5 57                              	DB	87
   286 000000E6 45                              	DB	69
   287 000000E7 52                              	DB	82
   288 000000E8 54                              	DB	84
   289 000000E9 59                              	DB	89
   290 000000EA 55                              	DB	85
   291 000000EB 49                              	DB	73
   292 000000EC 4F                              	DB	79
   293 000000ED 50                              	DB	80
   294 000000EE 60                              	DB	96
   295 000000EF 7B                              	DB	123
   296 000000F0 00                              	DB	0
   297 000000F1 00                              	DB	0
   298 000000F2 41                              	DB	65
   299 000000F3 53                              	DB	83
   300 000000F4 44                              	DB	68
   301 000000F5 46                              	DB	70
   302 000000F6 47                              	DB	71
   303 000000F7 48                              	DB	72
   304 000000F8 4A                              	DB	74
   305 000000F9 4B                              	DB	75
   306 000000FA 4C                              	DB	76
   307 000000FB 2B                              	DB	43
   308 000000FC 2A                              	DB	42
   309 000000FD 00                              	DB	0
   310 000000FE 00                              	DB	0
   311 000000FF 7D                              	DB	125
   312 00000100 5A                              	DB	90
   313 00000101 58                              	DB	88
   314 00000102 43                              	DB	67
   315 00000103 56                              	DB	86
   316 00000104 42                              	DB	66
   317 00000105 4E                              	DB	78
   318 00000106 4D                              	DB	77
   319 00000107 3C                              	DB	60
   320 00000108 3E                              	DB	62
   321 00000109 3F                              	DB	63
   322 0000010A 00                              	DB	0
   323 0000010B 2A                              	DB	42
   324 0000010C 00                              	DB	0
   325 0000010D 20                              	DB	32
   326 0000010E 00                              	DB	0
   327 0000010F 00                              	DB	0
   328 00000110 00                              	DB	0
   329 00000111 00                              	DB	0
   330 00000112 00                              	DB	0
   331 00000113 00                              	DB	0
   332 00000114 00                              	DB	0
   333 00000115 00                              	DB	0
   334 00000116 00                              	DB	0
   335 00000117 00                              	DB	0
   336 00000118 00                              	DB	0
   337 00000119 00                              	DB	0
   338 0000011A 00                              	DB	0
   339 0000011B 37                              	DB	55
   340 0000011C 38                              	DB	56
   341 0000011D 39                              	DB	57
   342 0000011E 2D                              	DB	45
   343 0000011F 34                              	DB	52
   344 00000120 35                              	DB	53
   345 00000121 36                              	DB	54
   346 00000122 2B                              	DB	43
   347 00000123 31                              	DB	49
   348 00000124 32                              	DB	50
   349 00000125 33                              	DB	51
   350 00000126 30                              	DB	48
   351 00000127 2E                              	DB	46
   352 00000128 00                              	DB	0
   353 00000129 00                              	DB	0
   354 0000012A 00                              	DB	0
   355 0000012B 00                              	DB	0
   356 0000012C 00                              	DB	0
   357 0000012D 00                              	DB	0
   358 0000012E 00                              	DB	0
   359 0000012F 00                              	DB	0
   360 00000130 00                              	DB	0
   361 00000131 00                              	DB	0
   362 00000132 00                              	DB	0
   363 00000133 00                              	DB	0
   364 00000134 00                              	DB	0
   365 00000135 00                              	DB	0
   366 00000136 00                              	DB	0
   367 00000137 00                              	DB	0
   368 00000138 00                              	DB	0
   369 00000139 00                              	DB	0
   370 0000013A 00                              	DB	0
   371 0000013B 00                              	DB	0
   372 0000013C 00                              	DB	0
   373 0000013D 00                              	DB	0
   374 0000013E 00                              	DB	0
   375 0000013F 00                              	DB	0
   376 00000140 00                              	DB	0
   377 00000141 00                              	DB	0
   378 00000142 00                              	DB	0
   379 00000143 00                              	DB	0
   380 00000144 00                              	DB	0
   381 00000145 00                              	DB	0
   382 00000146 00                              	DB	0
   383 00000147 5F                              	DB	95
   384 00000148 00                              	DB	0
   385 00000149 00                              	DB	0
   386 0000014A 00                              	DB	0
   387 0000014B 00                              	DB	0
   388 0000014C 00                              	DB	0
   389 0000014D 00                              	DB	0
   390 0000014E 00                              	DB	0
   391 0000014F 00                              	DB	0
   392 00000150 00                              	DB	0
   393 00000151 7C                              	DB	124
   394 00000152 00                              	DB	0
   395 00000153 00                              	DB	0
   396 00000154                                 LC1:
   397 00000154 0A 42 72 65 61 6B 28 6B 65 79   	DB	0x0A,"Break(key) :",0x0A,0x00
       0000015E 29 20 3A 0A 00 
   398 00000163                                 LC0:
   399 00000163 20 00                           	DB	" ",0x00
   400                                          [SECTION .text]
   401 00000000                                 	GLOBAL	_HariMain
   402 00000000                                 _HariMain:
   403 00000000 55                              	PUSH	EBP
   404 00000001 89 E5                           	MOV	EBP,ESP
   405 00000003 57                              	PUSH	EDI
   406 00000004 56                              	PUSH	ESI
   407 00000005 53                              	PUSH	EBX
   408 00000006 8D 75 D4                        	LEA	ESI,DWORD [-44+EBP]
   409 00000009 81 EC 000003AC                  	SUB	ESP,940
   410 0000000F 8D 5D B4                        	LEA	EBX,DWORD [-76+EBP]
   411 00000012 E8 [00000000]                   	CALL	_init_gdtidt
   412 00000017 E8 [00000000]                   	CALL	_init_pic
   413 0000001C E8 [00000000]                   	CALL	_io_sti
   414 00000021 E8 [00000000]                   	CALL	_init_pit
   415 00000026 E8 [00000000]                   	CALL	_Allow_InterruptMask
   416 0000002B 68 BFFFFFFF                     	PUSH	-1073741825
   417 00000030 68 00400000                     	PUSH	4194304
   418 00000035 C7 05 [0000016C] 003C0000       	MOV	DWORD [_memman],3932160
   419 0000003F E8 [00000000]                   	CALL	_memtest
   420 00000044 FF 35 [0000016C]                	PUSH	DWORD [_memman]
   421 0000004A 89 C7                           	MOV	EDI,EAX
   422 0000004C A3 [00000170]                   	MOV	DWORD [_mem_total],EAX
   423 00000051 E8 [00000000]                   	CALL	_memman_init
   424 00000056 68 0009E000                     	PUSH	647168
   425 0000005B 68 00001000                     	PUSH	4096
   426 00000060 FF 35 [0000016C]                	PUSH	DWORD [_memman]
   427 00000066 E8 [00000000]                   	CALL	_memman_free
   428 0000006B 8D 87 FFC00000                  	LEA	EAX,DWORD [-4194304+EDI]
   429 00000071 50                              	PUSH	EAX
   430 00000072 68 00400000                     	PUSH	4194304
   431 00000077 FF 35 [0000016C]                	PUSH	DWORD [_memman]
   432 0000007D E8 [00000000]                   	CALL	_memman_free
   433 00000082 83 C4 24                        	ADD	ESP,36
   434 00000085 68 00000E08                     	PUSH	3592
   435 0000008A FF 35 [0000016C]                	PUSH	DWORD [_memman]
   436 00000090 E8 [00000000]                   	CALL	_memman_alloc_4K
   437 00000095 89 85 FFFFFC90                  	MOV	DWORD [-880+EBP],EAX
   438 0000009B E8 [00000000]                   	CALL	_init_palette
   439 000000A0 0F BF 05 00000FF6               	MOVSX	EAX,WORD [4086]
   440 000000A7 50                              	PUSH	EAX
   441 000000A8 0F BF 05 00000FF4               	MOVSX	EAX,WORD [4084]
   442 000000AF 50                              	PUSH	EAX
   443 000000B0 FF 35 00000FF8                  	PUSH	DWORD [4088]
   444 000000B6 FF 35 [0000016C]                	PUSH	DWORD [_memman]
   445 000000BC FF B5 FFFFFC90                  	PUSH	DWORD [-880+EBP]
   446 000000C2 E8 [00000000]                   	CALL	_sheet
   447 000000C7 8B 95 FFFFFC90                  	MOV	EDX,DWORD [-880+EBP]
   448 000000CD 8B 02                           	MOV	EAX,DWORD [EDX]
   449 000000CF A3 00000FE4                     	MOV	DWORD [4068],EAX
   450 000000D4 8D 85 FFFFFDB4                  	LEA	EAX,DWORD [-588+EBP]
   451 000000DA 6A 00                           	PUSH	0
   452 000000DC 50                              	PUSH	EAX
   453 000000DD 68 00000080                     	PUSH	128
   454 000000E2 56                              	PUSH	ESI
   455 000000E3 E8 [00000000]                   	CALL	_fifo32_init
   456 000000E8 8D 85 FFFFFD34                  	LEA	EAX,DWORD [-716+EBP]
   457 000000EE 83 C4 2C                        	ADD	ESP,44
   458 000000F1 6A 00                           	PUSH	0
   459 000000F3 50                              	PUSH	EAX
   460 000000F4 6A 20                           	PUSH	32
   461 000000F6 53                              	PUSH	EBX
   462 000000F7 E8 [00000000]                   	CALL	_fifo32_init
   463 000000FC 68 00000100                     	PUSH	256
   464 00000101 56                              	PUSH	ESI
   465 00000102 E8 [00000000]                   	CALL	_init_keyboard
   466 00000107 8D 85 FFFFFD24                  	LEA	EAX,DWORD [-732+EBP]
   467 0000010D 50                              	PUSH	EAX
   468 0000010E 68 00000200                     	PUSH	512
   469 00000113 56                              	PUSH	ESI
   470 00000114 E8 [00000000]                   	CALL	_enable_mouse
   471 00000119 83 C4 24                        	ADD	ESP,36
   472 0000011C 8B 8D FFFFFC90                  	MOV	ECX,DWORD [-880+EBP]
   473 00000122 C7 85 FFFFFC80 00000000         	MOV	DWORD [-896+EBP],0
   474 0000012C 8B 09                           	MOV	ECX,DWORD [ECX]
   475 0000012E 89 8D FFFFFC48                  	MOV	DWORD [-952+EBP],ECX
   476 00000134 8B 51 08                        	MOV	EDX,DWORD [8+ECX]
   477 00000137 B9 00000002                     	MOV	ECX,2
   478 0000013C 83 EA 10                        	SUB	EDX,16
   479 0000013F 89 D0                           	MOV	EAX,EDX
   480 00000141 99                              	CDQ
   481 00000142 F7 F9                           	IDIV	ECX
   482 00000144 89 85 FFFFFC8C                  	MOV	DWORD [-884+EBP],EAX
   483 0000014A 8B 85 FFFFFC48                  	MOV	EAX,DWORD [-952+EBP]
   484 00000150 C7 85 FFFFFC7C 00000000         	MOV	DWORD [-900+EBP],0
   485 0000015A 8B 50 0C                        	MOV	EDX,DWORD [12+EAX]
   486 0000015D 83 EA 2C                        	SUB	EDX,44
   487 00000160 89 D0                           	MOV	EAX,EDX
   488 00000162 99                              	CDQ
   489 00000163 F7 F9                           	IDIV	ECX
   490 00000165 8B 95 FFFFFC90                  	MOV	EDX,DWORD [-880+EBP]
   491 0000016B 89 85 FFFFFC88                  	MOV	DWORD [-888+EBP],EAX
   492 00000171 83 C2 20                        	ADD	EDX,32
   493 00000174 89 95 FFFFFC84                  	MOV	DWORD [-892+EBP],EDX
   494 0000017A A0 00000FF1                     	MOV	AL,BYTE [4081]
   495 0000017F 68 000000ED                     	PUSH	237
   496 00000184 C0 F8 04                        	SAR	AL,4
   497 00000187 53                              	PUSH	EBX
   498 00000188 89 C1                           	MOV	ECX,EAX
   499 0000018A 83 E1 07                        	AND	ECX,7
   500 0000018D 89 8D FFFFFC78                  	MOV	DWORD [-904+EBP],ECX
   501 00000193 C7 85 FFFFFC74 FFFFFFFF         	MOV	DWORD [-908+EBP],-1
   502 0000019D C7 85 FFFFFC70 00000000         	MOV	DWORD [-912+EBP],0
   503 000001A7 E8 [00000000]                   	CALL	_fifo32_put
   504 000001AC FF B5 FFFFFC78                  	PUSH	DWORD [-904+EBP]
   505 000001B2 53                              	PUSH	EBX
   506 000001B3 8D 9D FFFFFCB4                  	LEA	EBX,DWORD [-844+EBP]
   507 000001B9 E8 [00000000]                   	CALL	_fifo32_put
   508 000001BE FF 35 [0000016C]                	PUSH	DWORD [_memman]
   509 000001C4 C7 85 FFFFFC6C FFFFFFFF         	MOV	DWORD [-916+EBP],-1
   510 000001CE C7 85 FFFFFC68 FFFFFFFF         	MOV	DWORD [-920+EBP],-1
   511 000001D8 C7 85 FFFFFC64 00000000         	MOV	DWORD [-924+EBP],0
   512 000001E2 E8 [00000000]                   	CALL	_Command_int
   513 000001E7 E8 [00000000]                   	CALL	_timer_alloc
   514 000001EC 6A 01                           	PUSH	1
   515 000001EE 56                              	PUSH	ESI
   516 000001EF 50                              	PUSH	EAX
   517 000001F0 89 85 FFFFFC60                  	MOV	DWORD [-928+EBP],EAX
   518 000001F6 E8 [00000000]                   	CALL	_timer_init
   519 000001FB 83 C4 20                        	ADD	ESP,32
   520 000001FE 6A 32                           	PUSH	50
   521 00000200 FF B5 FFFFFC60                  	PUSH	DWORD [-928+EBP]
   522 00000206 E8 [00000000]                   	CALL	_timer_settime
   523 0000020B FF 35 [0000016C]                	PUSH	DWORD [_memman]
   524 00000211 E8 [00000000]                   	CALL	_task_init
   525 00000216 6A 00                           	PUSH	0
   526 00000218 6A 01                           	PUSH	1
   527 0000021A 50                              	PUSH	EAX
   528 0000021B 89 85 FFFFFC5C                  	MOV	DWORD [-932+EBP],EAX
   529 00000221 89 45 EC                        	MOV	DWORD [-20+EBP],EAX
   530 00000224 E8 [00000000]                   	CALL	_task_run
   531 00000229 6A 38                           	PUSH	56
   532 0000022B 6A 08                           	PUSH	8
   533 0000022D 53                              	PUSH	EBX
   534 0000022E FF 35 [0000016C]                	PUSH	DWORD [_memman]
   535 00000234 FF B5 FFFFFC90                  	PUSH	DWORD [-880+EBP]
   536 0000023A C7 85 FFFFFCCC 00000034         	MOV	DWORD [-820+EBP],52
   537 00000244 C7 85 FFFFFCC8 00000090         	MOV	DWORD [-824+EBP],144
   538 0000024E C7 85 FFFFFCB4 646E6977         	MOV	DWORD [-844+EBP],1684957559
   539 00000258 C7 85 FFFFFCB8 0031776F         	MOV	DWORD [-840+EBP],3241839
   540 00000262 E8 [00000000]                   	CALL	_Make_Win1
   541 00000267 83 C4 2C                        	ADD	ESP,44
   542 0000026A 6A 00                           	PUSH	0
   543 0000026C 53                              	PUSH	EBX
   544 0000026D E8 [00000000]                   	CALL	_Sel_window
   545 00000272 6A 64                           	PUSH	100
   546 00000274 6A 64                           	PUSH	100
   547 00000276 8D 85 FFFFFC94                  	LEA	EAX,DWORD [-876+EBP]
   548 0000027C 50                              	PUSH	EAX
   549 0000027D FF 35 [0000016C]                	PUSH	DWORD [_memman]
   550 00000283 FF B5 FFFFFC90                  	PUSH	DWORD [-880+EBP]
   551 00000289 C7 85 FFFFFCAC 00000200         	MOV	DWORD [-852+EBP],512
   552 00000293 C7 85 FFFFFCA8 00000264         	MOV	DWORD [-856+EBP],612
   553 0000029D C7 85 FFFFFC94 736E6F43         	MOV	DWORD [-876+EBP],1936617283
   554 000002A7 C7 85 FFFFFC98 00656C6F         	MOV	DWORD [-872+EBP],6646895
   555 000002B1 E8 [00000000]                   	CALL	_Make_Console
   556 000002B6 E8 [00000000]                   	CALL	_task_alloc
   557 000002BB 68 00010000                     	PUSH	65536
   558 000002C0 FF 35 [0000016C]                	PUSH	DWORD [_memman]
   559 000002C6 89 85 FFFFFC58                  	MOV	DWORD [-936+EBP],EAX
   560 000002CC E8 [00000000]                   	CALL	_memman_alloc_4K
   561 000002D1 8B 95 FFFFFC58                  	MOV	EDX,DWORD [-936+EBP]
   562 000002D7 05 0000FFF4                     	ADD	EAX,65524
   563 000002DC 8B 8D FFFFFC58                  	MOV	ECX,DWORD [-936+EBP]
   564 000002E2 83 C4 24                        	ADD	ESP,36
   565 000002E5 89 42 48                        	MOV	DWORD [72+EDX],EAX
   566 000002E8 C7 42 30 [00000000]             	MOV	DWORD [48+EDX],_console_task
   567 000002EF C7 42 58 00000008               	MOV	DWORD [88+EDX],8
   568 000002F6 C7 42 5C 00000010               	MOV	DWORD [92+EDX],16
   569 000002FD C7 42 60 00000008               	MOV	DWORD [96+EDX],8
   570 00000304 C7 42 64 00000008               	MOV	DWORD [100+EDX],8
   571 0000030B C7 42 68 00000008               	MOV	DWORD [104+EDX],8
   572 00000312 C7 42 6C 00000008               	MOV	DWORD [108+EDX],8
   573 00000319 8B 95 FFFFFCB0                  	MOV	EDX,DWORD [-848+EBP]
   574 0000031F 89 50 04                        	MOV	DWORD [4+EAX],EDX
   575 00000322 8B 41 48                        	MOV	EAX,DWORD [72+ECX]
   576 00000325 89 78 08                        	MOV	DWORD [8+EAX],EDI
   577 00000328 6A 02                           	PUSH	2
   578 0000032A 6A 02                           	PUSH	2
   579 0000032C 51                              	PUSH	ECX
   580 0000032D E8 [00000000]                   	CALL	_task_run
   581 00000332 FF B5 FFFFFC90                  	PUSH	DWORD [-880+EBP]
   582 00000338 C7 85 FFFFFC54 00000010         	MOV	DWORD [-940+EBP],16
   583 00000342 C7 85 FFFFFC50 00000000         	MOV	DWORD [-944+EBP],0
   584 0000034C E8 [00000000]                   	CALL	_updown_mouse
   585 00000351                                 L74:
   586 00000351 83 C4 10                        	ADD	ESP,16
   587 00000354                                 L70:
   588 00000354 8D 5D B4                        	LEA	EBX,DWORD [-76+EBP]
   589 00000357 53                              	PUSH	EBX
   590 00000358 E8 [00000000]                   	CALL	_fifo32_status
   591 0000035D 59                              	POP	ECX
   592 0000035E 85 C0                           	TEST	EAX,EAX
   593 00000360 7E 0D                           	JLE	L5
   594 00000362 83 BD FFFFFC74 00               	CMP	DWORD [-908+EBP],0
   595 00000369 0F 88 000007F5                  	JS	L77
   596 0000036F                                 L5:
   597 0000036F 8D 5D D4                        	LEA	EBX,DWORD [-44+EBP]
   598 00000372 E8 [00000000]                   	CALL	_io_cli
   599 00000377 53                              	PUSH	EBX
   600 00000378 E8 [00000000]                   	CALL	_fifo32_status
   601 0000037D 5A                              	POP	EDX
   602 0000037E 85 C0                           	TEST	EAX,EAX
   603 00000380 0F 84 000007C8                  	JE	L78
   604 00000386 53                              	PUSH	EBX
   605 00000387 E8 [00000000]                   	CALL	_fifo32_get
   606 0000038C 89 C6                           	MOV	ESI,EAX
   607 0000038E E8 [00000000]                   	CALL	_io_sti
   608 00000393 5F                              	POP	EDI
   609 00000394 8D 86 FFFFFF00                  	LEA	EAX,DWORD [-256+ESI]
   610 0000039A 3D 000000FF                     	CMP	EAX,255
   611 0000039F 0F 86 000002DD                  	JBE	L79
   612 000003A5 8D 86 FFFFFE00                  	LEA	EAX,DWORD [-512+ESI]
   613 000003AB 3D 000000FF                     	CMP	EAX,255
   614 000003B0 0F 86 000000D5                  	JBE	L80
   615 000003B6 83 FE 01                        	CMP	ESI,1
   616 000003B9 7F 99                           	JG	L70
   617 000003BB 85 F6                           	TEST	ESI,ESI
   618 000003BD 0F 84 0000009B                  	JE	L65
   619 000003C3 6A 00                           	PUSH	0
   620 000003C5 53                              	PUSH	EBX
   621 000003C6 FF B5 FFFFFC60                  	PUSH	DWORD [-928+EBP]
   622 000003CC E8 [00000000]                   	CALL	_timer_init
   623 000003D1 83 C4 0C                        	ADD	ESP,12
   624 000003D4 83 BD FFFFFC50 00               	CMP	DWORD [-944+EBP],0
   625 000003DB 78 0A                           	JS	L67
   626 000003DD C7 85 FFFFFC50 00000007         	MOV	DWORD [-944+EBP],7
   627 000003E7                                 L67:
   628 000003E7 6A 32                           	PUSH	50
   629 000003E9 FF B5 FFFFFC60                  	PUSH	DWORD [-928+EBP]
   630 000003EF E8 [00000000]                   	CALL	_timer_settime
   631 000003F4 58                              	POP	EAX
   632 000003F5 5A                              	POP	EDX
   633 000003F6 83 BD FFFFFC50 00               	CMP	DWORD [-944+EBP],0
   634 000003FD 0F 88 FFFFFF51                  	JS	L70
   635 00000403 8B 85 FFFFFC54                  	MOV	EAX,DWORD [-940+EBP]
   636 00000409 6A 2D                           	PUSH	45
   637 0000040B 83 C0 07                        	ADD	EAX,7
   638 0000040E 50                              	PUSH	EAX
   639 0000040F 6A 1F                           	PUSH	31
   640 00000411 FF B5 FFFFFC54                  	PUSH	DWORD [-940+EBP]
   641 00000417 0F B6 85 FFFFFC50               	MOVZX	EAX,BYTE [-944+EBP]
   642 0000041E 50                              	PUSH	EAX
   643 0000041F 8B 85 FFFFFCD0                  	MOV	EAX,DWORD [-816+EBP]
   644 00000425 FF 70 08                        	PUSH	DWORD [8+EAX]
   645 00000428 FF 30                           	PUSH	DWORD [EAX]
   646 0000042A E8 [00000000]                   	CALL	_boxfill8
   647 0000042F 8B 8D FFFFFC90                  	MOV	ECX,DWORD [-880+EBP]
   648 00000435 8B 85 FFFFFC54                  	MOV	EAX,DWORD [-940+EBP]
   649 0000043B 6A 2E                           	PUSH	46
   650 0000043D 83 C0 08                        	ADD	EAX,8
   651 00000440 50                              	PUSH	EAX
   652 00000441 6A 1F                           	PUSH	31
   653 00000443 FF B5 FFFFFC54                  	PUSH	DWORD [-940+EBP]
   654 00000449 FF B5 FFFFFCD0                  	PUSH	DWORD [-816+EBP]
   655 0000044F FF 31                           	PUSH	DWORD [ECX]
   656 00000451 E8 [00000000]                   	CALL	_sheet_refresh
   657 00000456 83 C4 34                        	ADD	ESP,52
   658 00000459 E9 FFFFFEF6                     	JMP	L70
   659 0000045E                                 L65:
   660 0000045E 6A 01                           	PUSH	1
   661 00000460 53                              	PUSH	EBX
   662 00000461 FF B5 FFFFFC60                  	PUSH	DWORD [-928+EBP]
   663 00000467 E8 [00000000]                   	CALL	_timer_init
   664 0000046C 83 C4 0C                        	ADD	ESP,12
   665 0000046F 83 BD FFFFFC50 00               	CMP	DWORD [-944+EBP],0
   666 00000476 0F 88 FFFFFF6B                  	JS	L67
   667 0000047C C7 85 FFFFFC50 00000000         	MOV	DWORD [-944+EBP],0
   668 00000486 E9 FFFFFF5C                     	JMP	L67
   669 0000048B                                 L80:
   670 0000048B 89 F2                           	MOV	EDX,ESI
   671 0000048D 0F B6 C2                        	MOVZX	EAX,DL
   672 00000490 50                              	PUSH	EAX
   673 00000491 8D 85 FFFFFD24                  	LEA	EAX,DWORD [-732+EBP]
   674 00000497 50                              	PUSH	EAX
   675 00000498 E8 [00000000]                   	CALL	_mouse_decode
   676 0000049D 59                              	POP	ECX
   677 0000049E 5B                              	POP	EBX
   678 0000049F 85 C0                           	TEST	EAX,EAX
   679 000004A1 0F 84 FFFFFEAD                  	JE	L70
   680 000004A7 8B 8D FFFFFD2C                  	MOV	ECX,DWORD [-724+EBP]
   681 000004AD 8B 85 FFFFFD28                  	MOV	EAX,DWORD [-728+EBP]
   682 000004B3 01 8D FFFFFC88                  	ADD	DWORD [-888+EBP],ECX
   683 000004B9 01 85 FFFFFC8C                  	ADD	DWORD [-884+EBP],EAX
   684 000004BF 0F 88 000001AE                  	JS	L81
   685 000004C5                                 L47:
   686 000004C5 83 BD FFFFFC88 00               	CMP	DWORD [-888+EBP],0
   687 000004CC 0F 88 00000192                  	JS	L82
   688 000004D2                                 L48:
   689 000004D2 8B 8D FFFFFC90                  	MOV	ECX,DWORD [-880+EBP]
   690 000004D8 8B 11                           	MOV	EDX,DWORD [ECX]
   691 000004DA 8B 42 08                        	MOV	EAX,DWORD [8+EDX]
   692 000004DD 48                              	DEC	EAX
   693 000004DE 39 85 FFFFFC8C                  	CMP	DWORD [-884+EBP],EAX
   694 000004E4 7E 06                           	JLE	L49
   695 000004E6 89 85 FFFFFC8C                  	MOV	DWORD [-884+EBP],EAX
   696 000004EC                                 L49:
   697 000004EC 8B 42 0C                        	MOV	EAX,DWORD [12+EDX]
   698 000004EF 48                              	DEC	EAX
   699 000004F0 39 85 FFFFFC88                  	CMP	DWORD [-888+EBP],EAX
   700 000004F6 7E 06                           	JLE	L50
   701 000004F8 89 85 FFFFFC88                  	MOV	DWORD [-888+EBP],EAX
   702 000004FE                                 L50:
   703 000004FE FF B5 FFFFFC88                  	PUSH	DWORD [-888+EBP]
   704 00000504 8B 85 FFFFFC84                  	MOV	EAX,DWORD [-892+EBP]
   705 0000050A 8B 95 FFFFFC90                  	MOV	EDX,DWORD [-880+EBP]
   706 00000510 FF B5 FFFFFC8C                  	PUSH	DWORD [-884+EBP]
   707 00000516 FF 70 14                        	PUSH	DWORD [20+EAX]
   708 00000519 FF 32                           	PUSH	DWORD [EDX]
   709 0000051B E8 [00000000]                   	CALL	_sheet_slide
   710 00000520 83 C4 10                        	ADD	ESP,16
   711 00000523 F7 85 FFFFFD30 00000001         	TEST	DWORD [-720+EBP],1
   712 0000052D 75 0F                           	JNE	L83
   713 0000052F C7 85 FFFFFC6C FFFFFFFF         	MOV	DWORD [-916+EBP],-1
   714 00000539 E9 FFFFFE16                     	JMP	L70
   715 0000053E                                 L83:
   716 0000053E 83 BD FFFFFC6C 00               	CMP	DWORD [-916+EBP],0
   717 00000545 78 51                           	JS	L84
   718 00000547 8B B5 FFFFFC88                  	MOV	ESI,DWORD [-888+EBP]
   719 0000054D 8B 95 FFFFFC64                  	MOV	EDX,DWORD [-924+EBP]
   720 00000553 2B B5 FFFFFC68                  	SUB	ESI,DWORD [-920+EBP]
   721 00000559 8B 9D FFFFFC8C                  	MOV	EBX,DWORD [-884+EBP]
   722 0000055F 2B 9D FFFFFC6C                  	SUB	EBX,DWORD [-916+EBP]
   723 00000565 03 72 14                        	ADD	ESI,DWORD [20+EDX]
   724 00000568 8B 8D FFFFFC90                  	MOV	ECX,DWORD [-880+EBP]
   725 0000056E 56                              	PUSH	ESI
   726 0000056F 03 5A 10                        	ADD	EBX,DWORD [16+EDX]
   727 00000572 53                              	PUSH	EBX
   728 00000573 52                              	PUSH	EDX
   729 00000574 FF 31                           	PUSH	DWORD [ECX]
   730 00000576 E8 [00000000]                   	CALL	_sheet_slide
   731 0000057B 8B 95 FFFFFC88                  	MOV	EDX,DWORD [-888+EBP]
   732 00000581 8B 85 FFFFFC8C                  	MOV	EAX,DWORD [-884+EBP]
   733 00000587 89 95 FFFFFC68                  	MOV	DWORD [-920+EBP],EDX
   734 0000058D 89 85 FFFFFC6C                  	MOV	DWORD [-916+EBP],EAX
   735 00000593 E9 FFFFFDB9                     	JMP	L74
   736 00000598                                 L84:
   737 00000598 8B 8D FFFFFC90                  	MOV	ECX,DWORD [-880+EBP]
   738 0000059E 8B 39                           	MOV	EDI,DWORD [ECX]
   739 000005A0 8B 4F 10                        	MOV	ECX,DWORD [16+EDI]
   740 000005A3                                 L76:
   741 000005A3 49                              	DEC	ECX
   742 000005A4 85 C9                           	TEST	ECX,ECX
   743 000005A6 0F 8E FFFFFDA8                  	JLE	L70
   744 000005AC 8B 44 8F 14                     	MOV	EAX,DWORD [20+EDI+ECX*4]
   745 000005B0 8B B5 FFFFFC88                  	MOV	ESI,DWORD [-888+EBP]
   746 000005B6 8B 9D FFFFFC8C                  	MOV	EBX,DWORD [-884+EBP]
   747 000005BC 89 85 FFFFFC64                  	MOV	DWORD [-924+EBP],EAX
   748 000005C2 2B 70 14                        	SUB	ESI,DWORD [20+EAX]
   749 000005C5 2B 58 10                        	SUB	EBX,DWORD [16+EAX]
   750 000005C8 78 D9                           	JS	L76
   751 000005CA 8B 40 08                        	MOV	EAX,DWORD [8+EAX]
   752 000005CD 39 C3                           	CMP	EBX,EAX
   753 000005CF 7D D2                           	JGE	L76
   754 000005D1 85 F6                           	TEST	ESI,ESI
   755 000005D3 78 CE                           	JS	L76
   756 000005D5 8B 95 FFFFFC64                  	MOV	EDX,DWORD [-924+EBP]
   757 000005DB 3B 72 0C                        	CMP	ESI,DWORD [12+EDX]
   758 000005DE 7D C3                           	JGE	L76
   759 000005E0 0F AF C6                        	IMUL	EAX,ESI
   760 000005E3 89 85 FFFFFC4C                  	MOV	DWORD [-948+EBP],EAX
   761 000005E9 8B 12                           	MOV	EDX,DWORD [EDX]
   762 000005EB 8B 85 FFFFFC4C                  	MOV	EAX,DWORD [-948+EBP]
   763 000005F1 01 D8                           	ADD	EAX,EBX
   764 000005F3 0F B6 04 10                     	MOVZX	EAX,BYTE [EAX+EDX*1]
   765 000005F7 8B 95 FFFFFC64                  	MOV	EDX,DWORD [-924+EBP]
   766 000005FD 3B 42 18                        	CMP	EAX,DWORD [24+EDX]
   767 00000600 74 A1                           	JE	L76
   768 00000602 8B 47 10                        	MOV	EAX,DWORD [16+EDI]
   769 00000605 8B 8D FFFFFC90                  	MOV	ECX,DWORD [-880+EBP]
   770 0000060B 48                              	DEC	EAX
   771 0000060C 50                              	PUSH	EAX
   772 0000060D 52                              	PUSH	EDX
   773 0000060E FF 31                           	PUSH	DWORD [ECX]
   774 00000610 E8 [00000000]                   	CALL	_sheet_updown
   775 00000615 83 C4 0C                        	ADD	ESP,12
   776 00000618 83 FB 02                        	CMP	EBX,2
   777 0000061B 0F 8E FFFFFD33                  	JLE	L70
   778 00000621 8B 95 FFFFFC64                  	MOV	EDX,DWORD [-924+EBP]
   779 00000627 8B 42 08                        	MOV	EAX,DWORD [8+EDX]
   780 0000062A 83 E8 03                        	SUB	EAX,3
   781 0000062D 39 C3                           	CMP	EBX,EAX
   782 0000062F 0F 8D FFFFFD1F                  	JGE	L70
   783 00000635 83 FE 02                        	CMP	ESI,2
   784 00000638 0F 8E FFFFFD16                  	JLE	L70
   785 0000063E 83 FE 14                        	CMP	ESI,20
   786 00000641 0F 8F FFFFFD0D                  	JG	L70
   787 00000647 8B 8D FFFFFC8C                  	MOV	ECX,DWORD [-884+EBP]
   788 0000064D 8B 85 FFFFFC88                  	MOV	EAX,DWORD [-888+EBP]
   789 00000653 89 8D FFFFFC6C                  	MOV	DWORD [-916+EBP],ECX
   790 00000659 89 85 FFFFFC68                  	MOV	DWORD [-920+EBP],EAX
   791 0000065F E9 FFFFFCF0                     	JMP	L70
   792 00000664                                 L82:
   793 00000664 C7 85 FFFFFC88 00000000         	MOV	DWORD [-888+EBP],0
   794 0000066E E9 FFFFFE5F                     	JMP	L48
   795 00000673                                 L81:
   796 00000673 C7 85 FFFFFC8C 00000000         	MOV	DWORD [-884+EBP],0
   797 0000067D E9 FFFFFE43                     	JMP	L47
   798 00000682                                 L79:
   799 00000682 81 FE 0000017F                  	CMP	ESI,383
   800 00000688 0F 8F 000004B4                  	JG	L9
   801 0000068E 83 BD FFFFFC7C 00               	CMP	DWORD [-900+EBP],0
   802 00000695 0F 85 0000049C                  	JNE	L10
   803 0000069B 8A 86 [FFFFFF54]                	MOV	AL,BYTE [_keytable0.1-256+ESI]
   804 000006A1                                 L75:
   805 000006A1 88 85 FFFFFCF4                  	MOV	BYTE [-780+EBP],AL
   806 000006A7                                 L12:
   807 000006A7 8A 95 FFFFFCF4                  	MOV	DL,BYTE [-780+EBP]
   808 000006AD 8D 42 BF                        	LEA	EAX,DWORD [-65+EDX]
   809 000006B0 3C 19                           	CMP	AL,25
   810 000006B2 77 1D                           	JA	L13
   811 000006B4 F7 85 FFFFFC78 00000004         	TEST	DWORD [-904+EBP],4
   812 000006BE 0F 85 00000464                  	JNE	L73
   813 000006C4 83 BD FFFFFC7C 00               	CMP	DWORD [-900+EBP],0
   814 000006CB 0F 84 00000449                  	JE	L15
   815 000006D1                                 L13:
   816 000006D1 8A 85 FFFFFCF4                  	MOV	AL,BYTE [-780+EBP]
   817 000006D7 84 C0                           	TEST	AL,AL
   818 000006D9 74 4F                           	JE	L17
   819 000006DB 83 BD FFFFFC80 00               	CMP	DWORD [-896+EBP],0
   820 000006E2 0F 85 00000414                  	JNE	L18
   821 000006E8 83 BD FFFFFC54 7F               	CMP	DWORD [-940+EBP],127
   822 000006EF 7F 39                           	JG	L17
   823 000006F1 6A 01                           	PUSH	1
   824 000006F3 8D 85 FFFFFCF4                  	LEA	EAX,DWORD [-780+EBP]
   825 000006F9 50                              	PUSH	EAX
   826 000006FA 8B 85 FFFFFC90                  	MOV	EAX,DWORD [-880+EBP]
   827 00000700 6A 00                           	PUSH	0
   828 00000702 6A 07                           	PUSH	7
   829 00000704 6A 1F                           	PUSH	31
   830 00000706 FF B5 FFFFFC54                  	PUSH	DWORD [-940+EBP]
   831 0000070C FF B5 FFFFFCD0                  	PUSH	DWORD [-816+EBP]
   832 00000712 C6 85 FFFFFCF5 00               	MOV	BYTE [-779+EBP],0
   833 00000719 FF 30                           	PUSH	DWORD [EAX]
   834 0000071B E8 [00000000]                   	CALL	_putfonts8_asc_sht
   835 00000720 83 C4 20                        	ADD	ESP,32
   836 00000723 83 85 FFFFFC54 08               	ADD	DWORD [-940+EBP],8
   837 0000072A                                 L17:
   838 0000072A 81 FE 0000010E                  	CMP	ESI,270
   839 00000730 0F 84 00000361                  	JE	L85
   840 00000736                                 L21:
   841 00000736 81 FE 0000011C                  	CMP	ESI,284
   842 0000073C 0F 84 0000032E                  	JE	L86
   843 00000742                                 L25:
   844 00000742 81 FE 0000010F                  	CMP	ESI,271
   845 00000748 0F 84 0000025E                  	JE	L87
   846 0000074E                                 L27:
   847 0000074E 81 FE 0000012A                  	CMP	ESI,298
   848 00000754 0F 84 00000246                  	JE	L88
   849 0000075A                                 L30:
   850 0000075A 81 FE 00000136                  	CMP	ESI,310
   851 00000760 0F 84 0000022E                  	JE	L89
   852 00000766                                 L31:
   853 00000766 81 FE 000001AA                  	CMP	ESI,426
   854 0000076C 0F 84 00000216                  	JE	L90
   855 00000772                                 L32:
   856 00000772 81 FE 000001B6                  	CMP	ESI,438
   857 00000778 0F 84 000001FE                  	JE	L91
   858 0000077E                                 L33:
   859 0000077E 81 FE 0000011D                  	CMP	ESI,285
   860 00000784 0F 84 000001E6                  	JE	L92
   861 0000078A                                 L34:
   862 0000078A 81 FE 0000019D                  	CMP	ESI,413
   863 00000790 0F 84 000001CE                  	JE	L93
   864 00000796                                 L35:
   865 00000796 81 FE 0000013A                  	CMP	ESI,314
   866 0000079C 0F 84 00000199                  	JE	L94
   867 000007A2                                 L36:
   868 000007A2 81 FE 00000145                  	CMP	ESI,325
   869 000007A8 0F 84 00000164                  	JE	L95
   870 000007AE                                 L37:
   871 000007AE 81 FE 00000146                  	CMP	ESI,326
   872 000007B4 0F 84 0000012F                  	JE	L96
   873 000007BA                                 L38:
   874 000007BA 81 FE 0000012E                  	CMP	ESI,302
   875 000007C0 0F 84 000000CC                  	JE	L97
   876 000007C6                                 L39:
   877 000007C6 81 FE 00000157                  	CMP	ESI,343
   878 000007CC 0F 84 00000096                  	JE	L98
   879 000007D2                                 L40:
   880 000007D2 81 FE 000001FA                  	CMP	ESI,506
   881 000007D8 74 7F                           	JE	L99
   882 000007DA                                 L41:
   883 000007DA 81 FE 000001FE                  	CMP	ESI,510
   884 000007E0 74 61                           	JE	L100
   885 000007E2                                 L42:
   886 000007E2 83 BD FFFFFC50 00               	CMP	DWORD [-944+EBP],0
   887 000007E9 78 29                           	JS	L43
   888 000007EB 8B 85 FFFFFC54                  	MOV	EAX,DWORD [-940+EBP]
   889 000007F1 6A 2D                           	PUSH	45
   890 000007F3 83 C0 07                        	ADD	EAX,7
   891 000007F6 50                              	PUSH	EAX
   892 000007F7 8B 85 FFFFFCD0                  	MOV	EAX,DWORD [-816+EBP]
   893 000007FD 6A 1F                           	PUSH	31
   894 000007FF FF B5 FFFFFC54                  	PUSH	DWORD [-940+EBP]
   895 00000805 6A 0F                           	PUSH	15
   896 00000807 FF 70 08                        	PUSH	DWORD [8+EAX]
   897 0000080A FF 30                           	PUSH	DWORD [EAX]
   898 0000080C E8 [00000000]                   	CALL	_boxfill8
   899 00000811 83 C4 1C                        	ADD	ESP,28
   900 00000814                                 L43:
   901 00000814 8B 85 FFFFFC54                  	MOV	EAX,DWORD [-940+EBP]
   902 0000081A 6A 2E                           	PUSH	46
   903 0000081C 83 C0 08                        	ADD	EAX,8
   904 0000081F 8B 8D FFFFFC90                  	MOV	ECX,DWORD [-880+EBP]
   905 00000825 50                              	PUSH	EAX
   906 00000826 6A 1F                           	PUSH	31
   907 00000828 FF B5 FFFFFC54                  	PUSH	DWORD [-940+EBP]
   908 0000082E FF B5 FFFFFCD0                  	PUSH	DWORD [-816+EBP]
   909 00000834 FF 31                           	PUSH	DWORD [ECX]
   910 00000836 E8 [00000000]                   	CALL	_sheet_refresh
   911 0000083B 83 C4 18                        	ADD	ESP,24
   912 0000083E E9 FFFFFB11                     	JMP	L70
   913 00000843                                 L100:
   914 00000843 E8 [00000000]                   	CALL	_wait_KBC_sendready
   915 00000848 FF B5 FFFFFC74                  	PUSH	DWORD [-908+EBP]
   916 0000084E 6A 60                           	PUSH	96
   917 00000850 E8 [00000000]                   	CALL	_io_out8
   918 00000855 5E                              	POP	ESI
   919 00000856 5F                              	POP	EDI
   920 00000857 EB 89                           	JMP	L42
   921 00000859                                 L99:
   922 00000859 C7 85 FFFFFC74 FFFFFFFF         	MOV	DWORD [-908+EBP],-1
   923 00000863 E9 FFFFFF72                     	JMP	L41
   924 00000868                                 L98:
   925 00000868 8B 95 FFFFFC90                  	MOV	EDX,DWORD [-880+EBP]
   926 0000086E 8B 02                           	MOV	EAX,DWORD [EDX]
   927 00000870 8B 40 10                        	MOV	EAX,DWORD [16+EAX]
   928 00000873 83 F8 02                        	CMP	EAX,2
   929 00000876 0F 8E FFFFFF56                  	JLE	L40
   930 0000087C 48                              	DEC	EAX
   931 0000087D 50                              	PUSH	EAX
   932 0000087E 8B 02                           	MOV	EAX,DWORD [EDX]
   933 00000880 FF 70 18                        	PUSH	DWORD [24+EAX]
   934 00000883 FF 32                           	PUSH	DWORD [EDX]
   935 00000885 E8 [00000000]                   	CALL	_sheet_updown
   936 0000088A 83 C4 0C                        	ADD	ESP,12
   937 0000088D E9 FFFFFF40                     	JMP	L40
   938 00000892                                 L97:
   939 00000892 83 BD FFFFFC70 00               	CMP	DWORD [-912+EBP],0
   940 00000899 0F 84 FFFFFF27                  	JE	L39
   941 0000089F 8B 95 FFFFFC58                  	MOV	EDX,DWORD [-936+EBP]
   942 000008A5 83 7A 18 00                     	CMP	DWORD [24+EDX],0
   943 000008A9 0F 84 FFFFFF17                  	JE	L39
   944 000008AF 68 [00000154]                   	PUSH	LC1
   945 000008B4 FF 35 00000FEC                  	PUSH	DWORD [4076]
   946 000008BA E8 [00000000]                   	CALL	_cons_putstr
   947 000008BF E8 [00000000]                   	CALL	_io_cli
   948 000008C4 8B 8D FFFFFC58                  	MOV	ECX,DWORD [-936+EBP]
   949 000008CA 8B 85 FFFFFC58                  	MOV	EAX,DWORD [-936+EBP]
   950 000008D0 83 C0 14                        	ADD	EAX,20
   951 000008D3 89 41 38                        	MOV	DWORD [56+ECX],EAX
   952 000008D6 C7 41 30 [00000000]             	MOV	DWORD [48+ECX],_asm_end_app
   953 000008DD E8 [00000000]                   	CALL	_io_sti
   954 000008E2 58                              	POP	EAX
   955 000008E3 5A                              	POP	EDX
   956 000008E4 E9 FFFFFEDD                     	JMP	L39
   957 000008E9                                 L96:
   958 000008E9 68 000000ED                     	PUSH	237
   959 000008EE 8D 5D B4                        	LEA	EBX,DWORD [-76+EBP]
   960 000008F1 53                              	PUSH	EBX
   961 000008F2 83 B5 FFFFFC78 01               	XOR	DWORD [-904+EBP],1
   962 000008F9 E8 [00000000]                   	CALL	_fifo32_put
   963 000008FE FF B5 FFFFFC78                  	PUSH	DWORD [-904+EBP]
   964 00000904 53                              	PUSH	EBX
   965 00000905 E8 [00000000]                   	CALL	_fifo32_put
   966 0000090A 83 C4 10                        	ADD	ESP,16
   967 0000090D E9 FFFFFEA8                     	JMP	L38
   968 00000912                                 L95:
   969 00000912 68 000000ED                     	PUSH	237
   970 00000917 8D 5D B4                        	LEA	EBX,DWORD [-76+EBP]
   971 0000091A 53                              	PUSH	EBX
   972 0000091B 83 B5 FFFFFC78 02               	XOR	DWORD [-904+EBP],2
   973 00000922 E8 [00000000]                   	CALL	_fifo32_put
   974 00000927 FF B5 FFFFFC78                  	PUSH	DWORD [-904+EBP]
   975 0000092D 53                              	PUSH	EBX
   976 0000092E E8 [00000000]                   	CALL	_fifo32_put
   977 00000933 83 C4 10                        	ADD	ESP,16
   978 00000936 E9 FFFFFE73                     	JMP	L37
   979 0000093B                                 L94:
   980 0000093B 68 000000ED                     	PUSH	237
   981 00000940 8D 5D B4                        	LEA	EBX,DWORD [-76+EBP]
   982 00000943 53                              	PUSH	EBX
   983 00000944 83 B5 FFFFFC78 04               	XOR	DWORD [-904+EBP],4
   984 0000094B E8 [00000000]                   	CALL	_fifo32_put
   985 00000950 FF B5 FFFFFC78                  	PUSH	DWORD [-904+EBP]
   986 00000956 53                              	PUSH	EBX
   987 00000957 E8 [00000000]                   	CALL	_fifo32_put
   988 0000095C 83 C4 10                        	ADD	ESP,16
   989 0000095F E9 FFFFFE3E                     	JMP	L36
   990 00000964                                 L93:
   991 00000964 83 A5 FFFFFC70 FE               	AND	DWORD [-912+EBP],-2
   992 0000096B E9 FFFFFE26                     	JMP	L35
   993 00000970                                 L92:
   994 00000970 83 8D FFFFFC70 01               	OR	DWORD [-912+EBP],1
   995 00000977 E9 FFFFFE0E                     	JMP	L34
   996 0000097C                                 L91:
   997 0000097C 83 A5 FFFFFC7C FD               	AND	DWORD [-900+EBP],-3
   998 00000983 E9 FFFFFDF6                     	JMP	L33
   999 00000988                                 L90:
  1000 00000988 83 A5 FFFFFC7C FE               	AND	DWORD [-900+EBP],-2
  1001 0000098F E9 FFFFFDDE                     	JMP	L32
  1002 00000994                                 L89:
  1003 00000994 83 8D FFFFFC7C 02               	OR	DWORD [-900+EBP],2
  1004 0000099B E9 FFFFFDC6                     	JMP	L31
  1005 000009A0                                 L88:
  1006 000009A0 83 8D FFFFFC7C 01               	OR	DWORD [-900+EBP],1
  1007 000009A7 E9 FFFFFDAE                     	JMP	L30
  1008 000009AC                                 L87:
  1009 000009AC 83 BD FFFFFC80 00               	CMP	DWORD [-896+EBP],0
  1010 000009B3 75 73                           	JNE	L28
  1011 000009B5 6A 00                           	PUSH	0
  1012 000009B7 8D 85 FFFFFC94                  	LEA	EAX,DWORD [-876+EBP]
  1013 000009BD 50                              	PUSH	EAX
  1014 000009BE C7 85 FFFFFC80 00000001         	MOV	DWORD [-896+EBP],1
  1015 000009C8 E8 [00000000]                   	CALL	_Sel_Console
  1016 000009CD 8D 85 FFFFFCB4                  	LEA	EAX,DWORD [-844+EBP]
  1017 000009D3 6A 01                           	PUSH	1
  1018 000009D5 50                              	PUSH	EAX
  1019 000009D6 E8 [00000000]                   	CALL	_Sel_window
  1020 000009DB 8B 85 FFFFFC54                  	MOV	EAX,DWORD [-940+EBP]
  1021 000009E1 6A 2E                           	PUSH	46
  1022 000009E3 83 C0 07                        	ADD	EAX,7
  1023 000009E6 50                              	PUSH	EAX
  1024 000009E7 8B 85 FFFFFCD0                  	MOV	EAX,DWORD [-816+EBP]
  1025 000009ED 6A 1F                           	PUSH	31
  1026 000009EF FF B5 FFFFFC54                  	PUSH	DWORD [-940+EBP]
  1027 000009F5 6A 00                           	PUSH	0
  1028 000009F7 FF B5 FFFFFCC8                  	PUSH	DWORD [-824+EBP]
  1029 000009FD FF 30                           	PUSH	DWORD [EAX]
  1030 000009FF C7 85 FFFFFC50 FFFFFFFF         	MOV	DWORD [-944+EBP],-1
  1031 00000A09 E8 [00000000]                   	CALL	_boxfill8
  1032 00000A0E 8B 8D FFFFFC58                  	MOV	ECX,DWORD [-936+EBP]
  1033 00000A14 83 C4 2C                        	ADD	ESP,44
  1034 00000A17 6A 02                           	PUSH	2
  1035 00000A19 FF 71 78                        	PUSH	DWORD [120+ECX]
  1036 00000A1C E8 [00000000]                   	CALL	_fifo32_put
  1037 00000A21 59                              	POP	ECX
  1038 00000A22 5B                              	POP	EBX
  1039 00000A23 E9 FFFFFD26                     	JMP	L27
  1040 00000A28                                 L28:
  1041 00000A28 6A 01                           	PUSH	1
  1042 00000A2A 8D 85 FFFFFC94                  	LEA	EAX,DWORD [-876+EBP]
  1043 00000A30 50                              	PUSH	EAX
  1044 00000A31 C7 85 FFFFFC80 00000000         	MOV	DWORD [-896+EBP],0
  1045 00000A3B E8 [00000000]                   	CALL	_Sel_Console
  1046 00000A40 8D 85 FFFFFCB4                  	LEA	EAX,DWORD [-844+EBP]
  1047 00000A46 6A 00                           	PUSH	0
  1048 00000A48 50                              	PUSH	EAX
  1049 00000A49 E8 [00000000]                   	CALL	_Sel_window
  1050 00000A4E 8B 85 FFFFFC58                  	MOV	EAX,DWORD [-936+EBP]
  1051 00000A54 6A 03                           	PUSH	3
  1052 00000A56 FF 70 78                        	PUSH	DWORD [120+EAX]
  1053 00000A59 C7 85 FFFFFC50 00000007         	MOV	DWORD [-944+EBP],7
  1054 00000A63 E8 [00000000]                   	CALL	_fifo32_put
  1055 00000A68 83 C4 18                        	ADD	ESP,24
  1056 00000A6B E9 FFFFFCDE                     	JMP	L27
  1057 00000A70                                 L86:
  1058 00000A70 83 BD FFFFFC80 00               	CMP	DWORD [-896+EBP],0
  1059 00000A77 0F 84 FFFFFCC5                  	JE	L25
  1060 00000A7D 8B 95 FFFFFC58                  	MOV	EDX,DWORD [-936+EBP]
  1061 00000A83 68 0000010A                     	PUSH	266
  1062 00000A88 FF 72 78                        	PUSH	DWORD [120+EDX]
  1063 00000A8B E8 [00000000]                   	CALL	_fifo32_put
  1064 00000A90 5F                              	POP	EDI
  1065 00000A91 58                              	POP	EAX
  1066 00000A92 E9 FFFFFCAB                     	JMP	L25
  1067 00000A97                                 L85:
  1068 00000A97 83 BD FFFFFC80 00               	CMP	DWORD [-896+EBP],0
  1069 00000A9E 75 42                           	JNE	L22
  1070 00000AA0 83 BD FFFFFC54 10               	CMP	DWORD [-940+EBP],16
  1071 00000AA7 0F 8E FFFFFC89                  	JLE	L21
  1072 00000AAD 6A 01                           	PUSH	1
  1073 00000AAF 8B 8D FFFFFC90                  	MOV	ECX,DWORD [-880+EBP]
  1074 00000AB5 68 [00000163]                   	PUSH	LC0
  1075 00000ABA 6A 00                           	PUSH	0
  1076 00000ABC 6A 07                           	PUSH	7
  1077 00000ABE 6A 1F                           	PUSH	31
  1078 00000AC0 FF B5 FFFFFC54                  	PUSH	DWORD [-940+EBP]
  1079 00000AC6 FF B5 FFFFFCD0                  	PUSH	DWORD [-816+EBP]
  1080 00000ACC FF 31                           	PUSH	DWORD [ECX]
  1081 00000ACE E8 [00000000]                   	CALL	_putfonts8_asc_sht
  1082 00000AD3 83 C4 20                        	ADD	ESP,32
  1083 00000AD6 83 AD FFFFFC54 08               	SUB	DWORD [-940+EBP],8
  1084 00000ADD E9 FFFFFC54                     	JMP	L21
  1085 00000AE2                                 L22:
  1086 00000AE2 8B 85 FFFFFC58                  	MOV	EAX,DWORD [-936+EBP]
  1087 00000AE8 68 00000108                     	PUSH	264
  1088 00000AED FF 70 78                        	PUSH	DWORD [120+EAX]
  1089 00000AF0 E8 [00000000]                   	CALL	_fifo32_put
  1090 00000AF5 58                              	POP	EAX
  1091 00000AF6 5A                              	POP	EDX
  1092 00000AF7 E9 FFFFFC3A                     	JMP	L21
  1093 00000AFC                                 L18:
  1094 00000AFC 0F BE C0                        	MOVSX	EAX,AL
  1095 00000AFF 05 00000100                     	ADD	EAX,256
  1096 00000B04 8B 95 FFFFFC58                  	MOV	EDX,DWORD [-936+EBP]
  1097 00000B0A 50                              	PUSH	EAX
  1098 00000B0B FF 72 78                        	PUSH	DWORD [120+EDX]
  1099 00000B0E E8 [00000000]                   	CALL	_fifo32_put
  1100 00000B13 59                              	POP	ECX
  1101 00000B14 5B                              	POP	EBX
  1102 00000B15 E9 FFFFFC10                     	JMP	L17
  1103 00000B1A                                 L15:
  1104 00000B1A 8D 42 20                        	LEA	EAX,DWORD [32+EDX]
  1105 00000B1D 88 85 FFFFFCF4                  	MOV	BYTE [-780+EBP],AL
  1106 00000B23 E9 FFFFFBA9                     	JMP	L13
  1107 00000B28                                 L73:
  1108 00000B28 83 BD FFFFFC7C 00               	CMP	DWORD [-900+EBP],0
  1109 00000B2F 0F 84 FFFFFB9C                  	JE	L13
  1110 00000B35 EB E3                           	JMP	L15
  1111 00000B37                                 L10:
  1112 00000B37 8A 86 [FFFFFFD4]                	MOV	AL,BYTE [_keytable1.2-256+ESI]
  1113 00000B3D E9 FFFFFB5F                     	JMP	L75
  1114 00000B42                                 L9:
  1115 00000B42 C6 85 FFFFFCF4 00               	MOV	BYTE [-780+EBP],0
  1116 00000B49 E9 FFFFFB59                     	JMP	L12
  1117 00000B4E                                 L78:
  1118 00000B4E FF B5 FFFFFC5C                  	PUSH	DWORD [-932+EBP]
  1119 00000B54 E8 [00000000]                   	CALL	_task_sleep
  1120 00000B59 E8 [00000000]                   	CALL	_io_sti
  1121 00000B5E 58                              	POP	EAX
  1122 00000B5F E9 FFFFF7F0                     	JMP	L70
  1123 00000B64                                 L77:
  1124 00000B64 53                              	PUSH	EBX
  1125 00000B65 E8 [00000000]                   	CALL	_fifo32_get
  1126 00000B6A 89 85 FFFFFC74                  	MOV	DWORD [-908+EBP],EAX
  1127 00000B70 E8 [00000000]                   	CALL	_wait_KBC_sendready
  1128 00000B75 FF B5 FFFFFC74                  	PUSH	DWORD [-908+EBP]
  1129 00000B7B 6A 60                           	PUSH	96
  1130 00000B7D E8 [00000000]                   	CALL	_io_out8
  1131 00000B82 83 C4 0C                        	ADD	ESP,12
  1132 00000B85 E9 FFFFF7E5                     	JMP	L5
  1133 00000B8A                                 L71:
  1134                                          [SECTION .data]
  1135 00000165                                 LC2:
  1136 00000165 25 31 31 64 00                  	DB	"%11d",0x00
  1137                                          [SECTION .text]
  1138 00000B8A                                 	GLOBAL	_task_b_main
  1139 00000B8A                                 _task_b_main:
  1140 00000B8A 55                              	PUSH	EBP
  1141 00000B8B 89 E5                           	MOV	EBP,ESP
  1142 00000B8D 57                              	PUSH	EDI
  1143 00000B8E 56                              	PUSH	ESI
  1144 00000B8F 31 FF                           	XOR	EDI,EDI
  1145 00000B91 53                              	PUSH	EBX
  1146 00000B92 8D 85 FFFFFDD4                  	LEA	EAX,DWORD [-556+EBP]
  1147 00000B98 81 EC 00000230                  	SUB	ESP,560
  1148 00000B9E 8D 5D D4                        	LEA	EBX,DWORD [-44+EBP]
  1149 00000BA1 6A 00                           	PUSH	0
  1150 00000BA3 50                              	PUSH	EAX
  1151 00000BA4 68 00000080                     	PUSH	128
  1152 00000BA9 53                              	PUSH	EBX
  1153 00000BAA E8 [00000000]                   	CALL	_fifo32_init
  1154 00000BAF E8 [00000000]                   	CALL	_timer_alloc
  1155 00000BB4 6A 64                           	PUSH	100
  1156 00000BB6 53                              	PUSH	EBX
  1157 00000BB7 89 C6                           	MOV	ESI,EAX
  1158 00000BB9 50                              	PUSH	EAX
  1159 00000BBA E8 [00000000]                   	CALL	_timer_init
  1160 00000BBF 6A 64                           	PUSH	100
  1161 00000BC1 56                              	PUSH	ESI
  1162 00000BC2 E8 [00000000]                   	CALL	_timer_settime
  1163 00000BC7 83 C4 24                        	ADD	ESP,36
  1164 00000BCA                                 L102:
  1165 00000BCA 8D 5D D4                        	LEA	EBX,DWORD [-44+EBP]
  1166 00000BCD E8 [00000000]                   	CALL	_io_cli
  1167 00000BD2 53                              	PUSH	EBX
  1168 00000BD3 47                              	INC	EDI
  1169 00000BD4 E8 [00000000]                   	CALL	_fifo32_status
  1170 00000BD9 5A                              	POP	EDX
  1171 00000BDA 85 C0                           	TEST	EAX,EAX
  1172 00000BDC 74 4A                           	JE	L108
  1173 00000BDE 53                              	PUSH	EBX
  1174 00000BDF E8 [00000000]                   	CALL	_fifo32_get
  1175 00000BE4 89 C3                           	MOV	EBX,EAX
  1176 00000BE6 E8 [00000000]                   	CALL	_io_sti
  1177 00000BEB 58                              	POP	EAX
  1178 00000BEC 83 FB 64                        	CMP	EBX,100
  1179 00000BEF 75 D9                           	JNE	L102
  1180 00000BF1 57                              	PUSH	EDI
  1181 00000BF2 8D 9D FFFFFDC4                  	LEA	EBX,DWORD [-572+EBP]
  1182 00000BF8 68 [00000165]                   	PUSH	LC2
  1183 00000BFD 53                              	PUSH	EBX
  1184 00000BFE E8 [00000000]                   	CALL	_sprintf
  1185 00000C03 6A 0B                           	PUSH	11
  1186 00000C05 53                              	PUSH	EBX
  1187 00000C06 6A 11                           	PUSH	17
  1188 00000C08 6A 0E                           	PUSH	14
  1189 00000C0A 6A 1C                           	PUSH	28
  1190 00000C0C 6A 18                           	PUSH	24
  1191 00000C0E FF 75 08                        	PUSH	DWORD [8+EBP]
  1192 00000C11 FF 75 0C                        	PUSH	DWORD [12+EBP]
  1193 00000C14 E8 [00000000]                   	CALL	_putfonts8_asc_sht
  1194 00000C19 83 C4 2C                        	ADD	ESP,44
  1195 00000C1C 6A 64                           	PUSH	100
  1196 00000C1E 56                              	PUSH	ESI
  1197 00000C1F E8 [00000000]                   	CALL	_timer_settime
  1198 00000C24 5B                              	POP	EBX
  1199 00000C25 58                              	POP	EAX
  1200 00000C26 EB A2                           	JMP	L102
  1201 00000C28                                 L108:
  1202 00000C28 E8 [00000000]                   	CALL	_io_sti
  1203 00000C2D EB 9B                           	JMP	L102
  1204 00000C2F                                 	GLOBAL	_memman
  1205                                          [SECTION .data]
  1206 0000016A 00 00                           	ALIGNB	4
  1207 0000016C                                 _memman:
  1208 0000016C 00 00 00 00                     	RESB	4
  1209 00000170                                 	GLOBAL	_mem_total
  1210                                          [SECTION .data]
  1211 00000170                                 	ALIGNB	4
  1212 00000170                                 _mem_total:
  1213 00000170 00 00 00 00                     	RESB	4
