     1 00000000                                 [FORMAT "WCOFF"]
     2 00000000                                 [INSTRSET "i486p"]
     3 00000000                                 [OPTIMIZE 1]
     4 00000000                                 [OPTION 1]
     5 00000000                                 [BITS 32]
     6 00000000                                 	EXTERN	_init_gdtidt
     7 00000000                                 	EXTERN	_init_pic
     8 00000000                                 	EXTERN	_io_sti
     9 00000000                                 	EXTERN	_init_pit
    10 00000000                                 	EXTERN	_Allow_InterruptMask
    11 00000000                                 	EXTERN	_memtest
    12 00000000                                 	EXTERN	_memman_init
    13 00000000                                 	EXTERN	_memman_free
    14 00000000                                 	EXTERN	_memman_alloc_4K
    15 00000000                                 	EXTERN	_init_palette
    16 00000000                                 	EXTERN	_sheet
    17 00000000                                 	EXTERN	_fifo32_init
    18 00000000                                 	EXTERN	_init_keyboard
    19 00000000                                 	EXTERN	_enable_mouse
    20 00000000                                 	EXTERN	_fifo32_put
    21 00000000                                 	EXTERN	_Command_int
    22 00000000                                 	EXTERN	_timer_alloc
    23 00000000                                 	EXTERN	_timer_init
    24 00000000                                 	EXTERN	_timer_settime
    25 00000000                                 	EXTERN	_task_init
    26 00000000                                 	EXTERN	_task_run
    27 00000000                                 	EXTERN	_Make_Win1
    28 00000000                                 	EXTERN	_Sel_window
    29 00000000                                 	EXTERN	_Make_Console
    30 00000000                                 	EXTERN	_task_alloc
    31 00000000                                 	EXTERN	_console_task
    32 00000000                                 	EXTERN	_updown_mouse
    33 00000000                                 	EXTERN	_fifo32_status
    34 00000000                                 	EXTERN	_io_cli
    35 00000000                                 	EXTERN	_fifo32_get
    36 00000000                                 	EXTERN	_boxfill8
    37 00000000                                 	EXTERN	_sheet_refresh
    38 00000000                                 	EXTERN	_mouse_decode
    39 00000000                                 	EXTERN	_sheet_slide
    40 00000000                                 	EXTERN	_sheet_updown
    41 00000000                                 	EXTERN	_keytable0.1
    42 00000000                                 	EXTERN	_putfonts8_asc_sht
    43 00000000                                 	EXTERN	_wait_KBC_sendready
    44 00000000                                 	EXTERN	_io_out8
    45 00000000                                 	EXTERN	_cons_putstr
    46 00000000                                 	EXTERN	_asm_end_app
    47 00000000                                 	EXTERN	_Sel_Console
    48 00000000                                 	EXTERN	_keytable1.2
    49 00000000                                 	EXTERN	_task_sleep
    50 00000000                                 	EXTERN	_sprintf
    51 00000000                                 [FILE "bootpack.c"]
    52                                          [SECTION .data]
    53 00000000                                 _keytable.0:
    54 00000000 00                              	DB	0
    55 00000001 00                              	DB	0
    56 00000002 31                              	DB	49
    57 00000003 32                              	DB	50
    58 00000004 33                              	DB	51
    59 00000005 34                              	DB	52
    60 00000006 35                              	DB	53
    61 00000007 36                              	DB	54
    62 00000008 37                              	DB	55
    63 00000009 38                              	DB	56
    64 0000000A 39                              	DB	57
    65 0000000B 30                              	DB	48
    66 0000000C 2D                              	DB	45
    67 0000000D 5E                              	DB	94
    68 0000000E 00                              	DB	0
    69 0000000F 00                              	DB	0
    70 00000010 51                              	DB	81
    71 00000011 57                              	DB	87
    72 00000012 45                              	DB	69
    73 00000013 52                              	DB	82
    74 00000014 54                              	DB	84
    75 00000015 59                              	DB	89
    76 00000016 55                              	DB	85
    77 00000017 49                              	DB	73
    78 00000018 4F                              	DB	79
    79 00000019 50                              	DB	80
    80 0000001A 40                              	DB	64
    81 0000001B 5B                              	DB	91
    82 0000001C 00                              	DB	0
    83 0000001D 00                              	DB	0
    84 0000001E 41                              	DB	65
    85 0000001F 53                              	DB	83
    86 00000020 44                              	DB	68
    87 00000021 46                              	DB	70
    88 00000022 47                              	DB	71
    89 00000023 48                              	DB	72
    90 00000024 4A                              	DB	74
    91 00000025 4B                              	DB	75
    92 00000026 4C                              	DB	76
    93 00000027 3B                              	DB	59
    94 00000028 3A                              	DB	58
    95 00000029 00                              	DB	0
    96 0000002A 00                              	DB	0
    97 0000002B 5D                              	DB	93
    98 0000002C 5A                              	DB	90
    99 0000002D 58                              	DB	88
   100 0000002E 43                              	DB	67
   101 0000002F 56                              	DB	86
   102 00000030 42                              	DB	66
   103 00000031 4E                              	DB	78
   104 00000032 4D                              	DB	77
   105 00000033 2C                              	DB	44
   106 00000034 2E                              	DB	46
   107 00000035 2F                              	DB	47
   108 00000036 00                              	DB	0
   109 00000037 2A                              	DB	42
   110 00000038 00                              	DB	0
   111 00000039 20                              	DB	32
   112 0000003A 00                              	DB	0
   113 0000003B 00                              	DB	0
   114 0000003C 00                              	DB	0
   115 0000003D 00                              	DB	0
   116 0000003E 00                              	DB	0
   117 0000003F 00                              	DB	0
   118 00000040 00                              	DB	0
   119 00000041 00                              	DB	0
   120 00000042 00                              	DB	0
   121 00000043 00                              	DB	0
   122 00000044 00                              	DB	0
   123 00000045 00                              	DB	0
   124 00000046 00                              	DB	0
   125 00000047 37                              	DB	55
   126 00000048 38                              	DB	56
   127 00000049 39                              	DB	57
   128 0000004A 2D                              	DB	45
   129 0000004B 34                              	DB	52
   130 0000004C 35                              	DB	53
   131 0000004D 36                              	DB	54
   132 0000004E 2B                              	DB	43
   133 0000004F 31                              	DB	49
   134 00000050 32                              	DB	50
   135 00000051 33                              	DB	51
   136 00000052 30                              	DB	48
   137 00000053 2E                              	DB	46
   138 00000054                                 _keytable0.1:
   139 00000054 00                              	DB	0
   140 00000055 00                              	DB	0
   141 00000056 31                              	DB	49
   142 00000057 32                              	DB	50
   143 00000058 33                              	DB	51
   144 00000059 34                              	DB	52
   145 0000005A 35                              	DB	53
   146 0000005B 36                              	DB	54
   147 0000005C 37                              	DB	55
   148 0000005D 38                              	DB	56
   149 0000005E 39                              	DB	57
   150 0000005F 30                              	DB	48
   151 00000060 2D                              	DB	45
   152 00000061 5E                              	DB	94
   153 00000062 00                              	DB	0
   154 00000063 00                              	DB	0
   155 00000064 51                              	DB	81
   156 00000065 57                              	DB	87
   157 00000066 45                              	DB	69
   158 00000067 52                              	DB	82
   159 00000068 54                              	DB	84
   160 00000069 59                              	DB	89
   161 0000006A 55                              	DB	85
   162 0000006B 49                              	DB	73
   163 0000006C 4F                              	DB	79
   164 0000006D 50                              	DB	80
   165 0000006E 40                              	DB	64
   166 0000006F 5B                              	DB	91
   167 00000070 00                              	DB	0
   168 00000071 00                              	DB	0
   169 00000072 41                              	DB	65
   170 00000073 53                              	DB	83
   171 00000074 44                              	DB	68
   172 00000075 46                              	DB	70
   173 00000076 47                              	DB	71
   174 00000077 48                              	DB	72
   175 00000078 4A                              	DB	74
   176 00000079 4B                              	DB	75
   177 0000007A 4C                              	DB	76
   178 0000007B 3B                              	DB	59
   179 0000007C 3A                              	DB	58
   180 0000007D 00                              	DB	0
   181 0000007E 00                              	DB	0
   182 0000007F 5D                              	DB	93
   183 00000080 5A                              	DB	90
   184 00000081 58                              	DB	88
   185 00000082 43                              	DB	67
   186 00000083 56                              	DB	86
   187 00000084 42                              	DB	66
   188 00000085 4E                              	DB	78
   189 00000086 4D                              	DB	77
   190 00000087 2C                              	DB	44
   191 00000088 2E                              	DB	46
   192 00000089 2F                              	DB	47
   193 0000008A 00                              	DB	0
   194 0000008B 2A                              	DB	42
   195 0000008C 00                              	DB	0
   196 0000008D 20                              	DB	32
   197 0000008E 00                              	DB	0
   198 0000008F 00                              	DB	0
   199 00000090 00                              	DB	0
   200 00000091 00                              	DB	0
   201 00000092 00                              	DB	0
   202 00000093 00                              	DB	0
   203 00000094 00                              	DB	0
   204 00000095 00                              	DB	0
   205 00000096 00                              	DB	0
   206 00000097 00                              	DB	0
   207 00000098 00                              	DB	0
   208 00000099 00                              	DB	0
   209 0000009A 00                              	DB	0
   210 0000009B 37                              	DB	55
   211 0000009C 38                              	DB	56
   212 0000009D 39                              	DB	57
   213 0000009E 2D                              	DB	45
   214 0000009F 34                              	DB	52
   215 000000A0 35                              	DB	53
   216 000000A1 36                              	DB	54
   217 000000A2 2B                              	DB	43
   218 000000A3 31                              	DB	49
   219 000000A4 32                              	DB	50
   220 000000A5 33                              	DB	51
   221 000000A6 30                              	DB	48
   222 000000A7 2E                              	DB	46
   223 000000A8 00                              	DB	0
   224 000000A9 00                              	DB	0
   225 000000AA 00                              	DB	0
   226 000000AB 00                              	DB	0
   227 000000AC 00                              	DB	0
   228 000000AD 00                              	DB	0
   229 000000AE 00                              	DB	0
   230 000000AF 00                              	DB	0
   231 000000B0 00                              	DB	0
   232 000000B1 00                              	DB	0
   233 000000B2 00                              	DB	0
   234 000000B3 00                              	DB	0
   235 000000B4 00                              	DB	0
   236 000000B5 00                              	DB	0
   237 000000B6 00                              	DB	0
   238 000000B7 00                              	DB	0
   239 000000B8 00                              	DB	0
   240 000000B9 00                              	DB	0
   241 000000BA 00                              	DB	0
   242 000000BB 00                              	DB	0
   243 000000BC 00                              	DB	0
   244 000000BD 00                              	DB	0
   245 000000BE 00                              	DB	0
   246 000000BF 00                              	DB	0
   247 000000C0 00                              	DB	0
   248 000000C1 00                              	DB	0
   249 000000C2 00                              	DB	0
   250 000000C3 00                              	DB	0
   251 000000C4 00                              	DB	0
   252 000000C5 00                              	DB	0
   253 000000C6 00                              	DB	0
   254 000000C7 5C                              	DB	92
   255 000000C8 00                              	DB	0
   256 000000C9 00                              	DB	0
   257 000000CA 00                              	DB	0
   258 000000CB 00                              	DB	0
   259 000000CC 00                              	DB	0
   260 000000CD 00                              	DB	0
   261 000000CE 00                              	DB	0
   262 000000CF 00                              	DB	0
   263 000000D0 00                              	DB	0
   264 000000D1 5C                              	DB	92
   265 000000D2 00                              	DB	0
   266 000000D3 00                              	DB	0
   267 000000D4                                 _keytable1.2:
   268 000000D4 00                              	DB	0
   269 000000D5 00                              	DB	0
   270 000000D6 21                              	DB	33
   271 000000D7 22                              	DB	34
   272 000000D8 23                              	DB	35
   273 000000D9 24                              	DB	36
   274 000000DA 25                              	DB	37
   275 000000DB 26                              	DB	38
   276 000000DC 27                              	DB	39
   277 000000DD 28                              	DB	40
   278 000000DE 29                              	DB	41
   279 000000DF 7E                              	DB	126
   280 000000E0 3D                              	DB	61
   281 000000E1 7E                              	DB	126
   282 000000E2 00                              	DB	0
   283 000000E3 00                              	DB	0
   284 000000E4 51                              	DB	81
   285 000000E5 57                              	DB	87
   286 000000E6 45                              	DB	69
   287 000000E7 52                              	DB	82
   288 000000E8 54                              	DB	84
   289 000000E9 59                              	DB	89
   290 000000EA 55                              	DB	85
   291 000000EB 49                              	DB	73
   292 000000EC 4F                              	DB	79
   293 000000ED 50                              	DB	80
   294 000000EE 60                              	DB	96
   295 000000EF 7B                              	DB	123
   296 000000F0 00                              	DB	0
   297 000000F1 00                              	DB	0
   298 000000F2 41                              	DB	65
   299 000000F3 53                              	DB	83
   300 000000F4 44                              	DB	68
   301 000000F5 46                              	DB	70
   302 000000F6 47                              	DB	71
   303 000000F7 48                              	DB	72
   304 000000F8 4A                              	DB	74
   305 000000F9 4B                              	DB	75
   306 000000FA 4C                              	DB	76
   307 000000FB 2B                              	DB	43
   308 000000FC 2A                              	DB	42
   309 000000FD 00                              	DB	0
   310 000000FE 00                              	DB	0
   311 000000FF 7D                              	DB	125
   312 00000100 5A                              	DB	90
   313 00000101 58                              	DB	88
   314 00000102 43                              	DB	67
   315 00000103 56                              	DB	86
   316 00000104 42                              	DB	66
   317 00000105 4E                              	DB	78
   318 00000106 4D                              	DB	77
   319 00000107 3C                              	DB	60
   320 00000108 3E                              	DB	62
   321 00000109 3F                              	DB	63
   322 0000010A 00                              	DB	0
   323 0000010B 2A                              	DB	42
   324 0000010C 00                              	DB	0
   325 0000010D 20                              	DB	32
   326 0000010E 00                              	DB	0
   327 0000010F 00                              	DB	0
   328 00000110 00                              	DB	0
   329 00000111 00                              	DB	0
   330 00000112 00                              	DB	0
   331 00000113 00                              	DB	0
   332 00000114 00                              	DB	0
   333 00000115 00                              	DB	0
   334 00000116 00                              	DB	0
   335 00000117 00                              	DB	0
   336 00000118 00                              	DB	0
   337 00000119 00                              	DB	0
   338 0000011A 00                              	DB	0
   339 0000011B 37                              	DB	55
   340 0000011C 38                              	DB	56
   341 0000011D 39                              	DB	57
   342 0000011E 2D                              	DB	45
   343 0000011F 34                              	DB	52
   344 00000120 35                              	DB	53
   345 00000121 36                              	DB	54
   346 00000122 2B                              	DB	43
   347 00000123 31                              	DB	49
   348 00000124 32                              	DB	50
   349 00000125 33                              	DB	51
   350 00000126 30                              	DB	48
   351 00000127 2E                              	DB	46
   352 00000128 00                              	DB	0
   353 00000129 00                              	DB	0
   354 0000012A 00                              	DB	0
   355 0000012B 00                              	DB	0
   356 0000012C 00                              	DB	0
   357 0000012D 00                              	DB	0
   358 0000012E 00                              	DB	0
   359 0000012F 00                              	DB	0
   360 00000130 00                              	DB	0
   361 00000131 00                              	DB	0
   362 00000132 00                              	DB	0
   363 00000133 00                              	DB	0
   364 00000134 00                              	DB	0
   365 00000135 00                              	DB	0
   366 00000136 00                              	DB	0
   367 00000137 00                              	DB	0
   368 00000138 00                              	DB	0
   369 00000139 00                              	DB	0
   370 0000013A 00                              	DB	0
   371 0000013B 00                              	DB	0
   372 0000013C 00                              	DB	0
   373 0000013D 00                              	DB	0
   374 0000013E 00                              	DB	0
   375 0000013F 00                              	DB	0
   376 00000140 00                              	DB	0
   377 00000141 00                              	DB	0
   378 00000142 00                              	DB	0
   379 00000143 00                              	DB	0
   380 00000144 00                              	DB	0
   381 00000145 00                              	DB	0
   382 00000146 00                              	DB	0
   383 00000147 5F                              	DB	95
   384 00000148 00                              	DB	0
   385 00000149 00                              	DB	0
   386 0000014A 00                              	DB	0
   387 0000014B 00                              	DB	0
   388 0000014C 00                              	DB	0
   389 0000014D 00                              	DB	0
   390 0000014E 00                              	DB	0
   391 0000014F 00                              	DB	0
   392 00000150 00                              	DB	0
   393 00000151 7C                              	DB	124
   394 00000152 00                              	DB	0
   395 00000153 00                              	DB	0
   396 00000154                                 LC1:
   397 00000154 0A 42 72 65 61 6B 28 6B 65 79   	DB	0x0A,"Break(key) :",0x0A,0x00
       0000015E 29 20 3A 0A 00 
   398 00000163                                 LC0:
   399 00000163 20 00                           	DB	" ",0x00
   400                                          [SECTION .text]
   401 00000000                                 	GLOBAL	_HariMain
   402 00000000                                 _HariMain:
   403 00000000 55                              	PUSH	EBP
   404 00000001 89 E5                           	MOV	EBP,ESP
   405 00000003 57                              	PUSH	EDI
   406 00000004 56                              	PUSH	ESI
   407 00000005 53                              	PUSH	EBX
   408 00000006 8D 75 D4                        	LEA	ESI,DWORD [-44+EBP]
   409 00000009 81 EC 0000039C                  	SUB	ESP,924
   410 0000000F 8D 5D B4                        	LEA	EBX,DWORD [-76+EBP]
   411 00000012 E8 [00000000]                   	CALL	_init_gdtidt
   412 00000017 E8 [00000000]                   	CALL	_init_pic
   413 0000001C E8 [00000000]                   	CALL	_io_sti
   414 00000021 E8 [00000000]                   	CALL	_init_pit
   415 00000026 E8 [00000000]                   	CALL	_Allow_InterruptMask
   416 0000002B 68 BFFFFFFF                     	PUSH	-1073741825
   417 00000030 68 00400000                     	PUSH	4194304
   418 00000035 C7 05 [0000016C] 003C0000       	MOV	DWORD [_memman],3932160
   419 0000003F E8 [00000000]                   	CALL	_memtest
   420 00000044 FF 35 [0000016C]                	PUSH	DWORD [_memman]
   421 0000004A 89 C7                           	MOV	EDI,EAX
   422 0000004C A3 [00000170]                   	MOV	DWORD [_mem_total],EAX
   423 00000051 E8 [00000000]                   	CALL	_memman_init
   424 00000056 68 0009E000                     	PUSH	647168
   425 0000005B 68 00001000                     	PUSH	4096
   426 00000060 FF 35 [0000016C]                	PUSH	DWORD [_memman]
   427 00000066 E8 [00000000]                   	CALL	_memman_free
   428 0000006B 8D 87 FFC00000                  	LEA	EAX,DWORD [-4194304+EDI]
   429 00000071 50                              	PUSH	EAX
   430 00000072 68 00400000                     	PUSH	4194304
   431 00000077 FF 35 [0000016C]                	PUSH	DWORD [_memman]
   432 0000007D E8 [00000000]                   	CALL	_memman_free
   433 00000082 83 C4 24                        	ADD	ESP,36
   434 00000085 68 00000E08                     	PUSH	3592
   435 0000008A FF 35 [0000016C]                	PUSH	DWORD [_memman]
   436 00000090 E8 [00000000]                   	CALL	_memman_alloc_4K
   437 00000095 89 85 FFFFFC90                  	MOV	DWORD [-880+EBP],EAX
   438 0000009B E8 [00000000]                   	CALL	_init_palette
   439 000000A0 0F BF 05 00000FF6               	MOVSX	EAX,WORD [4086]
   440 000000A7 50                              	PUSH	EAX
   441 000000A8 0F BF 05 00000FF4               	MOVSX	EAX,WORD [4084]
   442 000000AF 50                              	PUSH	EAX
   443 000000B0 FF 35 00000FF8                  	PUSH	DWORD [4088]
   444 000000B6 FF 35 [0000016C]                	PUSH	DWORD [_memman]
   445 000000BC FF B5 FFFFFC90                  	PUSH	DWORD [-880+EBP]
   446 000000C2 E8 [00000000]                   	CALL	_sheet
   447 000000C7 8B 95 FFFFFC90                  	MOV	EDX,DWORD [-880+EBP]
   448 000000CD 8B 02                           	MOV	EAX,DWORD [EDX]
   449 000000CF A3 00000FE4                     	MOV	DWORD [4068],EAX
   450 000000D4 8D 85 FFFFFDB4                  	LEA	EAX,DWORD [-588+EBP]
   451 000000DA 6A 00                           	PUSH	0
   452 000000DC 50                              	PUSH	EAX
   453 000000DD 68 00000080                     	PUSH	128
   454 000000E2 56                              	PUSH	ESI
   455 000000E3 E8 [00000000]                   	CALL	_fifo32_init
   456 000000E8 8D 85 FFFFFD34                  	LEA	EAX,DWORD [-716+EBP]
   457 000000EE 83 C4 2C                        	ADD	ESP,44
   458 000000F1 6A 00                           	PUSH	0
   459 000000F3 50                              	PUSH	EAX
   460 000000F4 6A 20                           	PUSH	32
   461 000000F6 53                              	PUSH	EBX
   462 000000F7 E8 [00000000]                   	CALL	_fifo32_init
   463 000000FC 68 00000100                     	PUSH	256
   464 00000101 56                              	PUSH	ESI
   465 00000102 E8 [00000000]                   	CALL	_init_keyboard
   466 00000107 8D 85 FFFFFD24                  	LEA	EAX,DWORD [-732+EBP]
   467 0000010D 50                              	PUSH	EAX
   468 0000010E 68 00000200                     	PUSH	512
   469 00000113 56                              	PUSH	ESI
   470 00000114 E8 [00000000]                   	CALL	_enable_mouse
   471 00000119 83 C4 24                        	ADD	ESP,36
   472 0000011C 8B 8D FFFFFC90                  	MOV	ECX,DWORD [-880+EBP]
   473 00000122 C7 85 FFFFFC80 00000000         	MOV	DWORD [-896+EBP],0
   474 0000012C 8B 09                           	MOV	ECX,DWORD [ECX]
   475 0000012E 89 8D FFFFFC58                  	MOV	DWORD [-936+EBP],ECX
   476 00000134 8B 51 08                        	MOV	EDX,DWORD [8+ECX]
   477 00000137 B9 00000002                     	MOV	ECX,2
   478 0000013C 83 EA 10                        	SUB	EDX,16
   479 0000013F 89 D0                           	MOV	EAX,EDX
   480 00000141 99                              	CDQ
   481 00000142 F7 F9                           	IDIV	ECX
   482 00000144 89 85 FFFFFC8C                  	MOV	DWORD [-884+EBP],EAX
   483 0000014A 8B 85 FFFFFC58                  	MOV	EAX,DWORD [-936+EBP]
   484 00000150 C7 85 FFFFFC7C 00000000         	MOV	DWORD [-900+EBP],0
   485 0000015A 8B 50 0C                        	MOV	EDX,DWORD [12+EAX]
   486 0000015D 83 EA 2C                        	SUB	EDX,44
   487 00000160 89 D0                           	MOV	EAX,EDX
   488 00000162 99                              	CDQ
   489 00000163 F7 F9                           	IDIV	ECX
   490 00000165 8B 95 FFFFFC90                  	MOV	EDX,DWORD [-880+EBP]
   491 0000016B 89 85 FFFFFC88                  	MOV	DWORD [-888+EBP],EAX
   492 00000171 83 C2 20                        	ADD	EDX,32
   493 00000174 89 95 FFFFFC84                  	MOV	DWORD [-892+EBP],EDX
   494 0000017A A0 00000FF1                     	MOV	AL,BYTE [4081]
   495 0000017F 68 000000ED                     	PUSH	237
   496 00000184 C0 F8 04                        	SAR	AL,4
   497 00000187 53                              	PUSH	EBX
   498 00000188 89 C1                           	MOV	ECX,EAX
   499 0000018A 83 E1 07                        	AND	ECX,7
   500 0000018D 89 8D FFFFFC78                  	MOV	DWORD [-904+EBP],ECX
   501 00000193 C7 85 FFFFFC74 FFFFFFFF         	MOV	DWORD [-908+EBP],-1
   502 0000019D C7 85 FFFFFC70 00000000         	MOV	DWORD [-912+EBP],0
   503 000001A7 E8 [00000000]                   	CALL	_fifo32_put
   504 000001AC FF B5 FFFFFC78                  	PUSH	DWORD [-904+EBP]
   505 000001B2 53                              	PUSH	EBX
   506 000001B3 8D 9D FFFFFCB4                  	LEA	EBX,DWORD [-844+EBP]
   507 000001B9 E8 [00000000]                   	CALL	_fifo32_put
   508 000001BE FF 35 [0000016C]                	PUSH	DWORD [_memman]
   509 000001C4 E8 [00000000]                   	CALL	_Command_int
   510 000001C9 E8 [00000000]                   	CALL	_timer_alloc
   511 000001CE 6A 01                           	PUSH	1
   512 000001D0 56                              	PUSH	ESI
   513 000001D1 50                              	PUSH	EAX
   514 000001D2 89 85 FFFFFC6C                  	MOV	DWORD [-916+EBP],EAX
   515 000001D8 E8 [00000000]                   	CALL	_timer_init
   516 000001DD 83 C4 20                        	ADD	ESP,32
   517 000001E0 6A 32                           	PUSH	50
   518 000001E2 FF B5 FFFFFC6C                  	PUSH	DWORD [-916+EBP]
   519 000001E8 E8 [00000000]                   	CALL	_timer_settime
   520 000001ED FF 35 [0000016C]                	PUSH	DWORD [_memman]
   521 000001F3 E8 [00000000]                   	CALL	_task_init
   522 000001F8 6A 00                           	PUSH	0
   523 000001FA 6A 01                           	PUSH	1
   524 000001FC 50                              	PUSH	EAX
   525 000001FD 89 85 FFFFFC68                  	MOV	DWORD [-920+EBP],EAX
   526 00000203 89 45 EC                        	MOV	DWORD [-20+EBP],EAX
   527 00000206 E8 [00000000]                   	CALL	_task_run
   528 0000020B 6A 38                           	PUSH	56
   529 0000020D 6A 08                           	PUSH	8
   530 0000020F 53                              	PUSH	EBX
   531 00000210 FF 35 [0000016C]                	PUSH	DWORD [_memman]
   532 00000216 FF B5 FFFFFC90                  	PUSH	DWORD [-880+EBP]
   533 0000021C C7 85 FFFFFCCC 00000034         	MOV	DWORD [-820+EBP],52
   534 00000226 C7 85 FFFFFCC8 00000090         	MOV	DWORD [-824+EBP],144
   535 00000230 C7 85 FFFFFCB4 646E6977         	MOV	DWORD [-844+EBP],1684957559
   536 0000023A C7 85 FFFFFCB8 0031776F         	MOV	DWORD [-840+EBP],3241839
   537 00000244 E8 [00000000]                   	CALL	_Make_Win1
   538 00000249 83 C4 2C                        	ADD	ESP,44
   539 0000024C 6A 00                           	PUSH	0
   540 0000024E 53                              	PUSH	EBX
   541 0000024F E8 [00000000]                   	CALL	_Sel_window
   542 00000254 6A 64                           	PUSH	100
   543 00000256 6A 64                           	PUSH	100
   544 00000258 8D 85 FFFFFC94                  	LEA	EAX,DWORD [-876+EBP]
   545 0000025E 50                              	PUSH	EAX
   546 0000025F FF 35 [0000016C]                	PUSH	DWORD [_memman]
   547 00000265 FF B5 FFFFFC90                  	PUSH	DWORD [-880+EBP]
   548 0000026B C7 85 FFFFFCAC 00000200         	MOV	DWORD [-852+EBP],512
   549 00000275 C7 85 FFFFFCA8 00000264         	MOV	DWORD [-856+EBP],612
   550 0000027F C7 85 FFFFFC94 736E6F43         	MOV	DWORD [-876+EBP],1936617283
   551 00000289 C7 85 FFFFFC98 00656C6F         	MOV	DWORD [-872+EBP],6646895
   552 00000293 E8 [00000000]                   	CALL	_Make_Console
   553 00000298 E8 [00000000]                   	CALL	_task_alloc
   554 0000029D 68 00010000                     	PUSH	65536
   555 000002A2 FF 35 [0000016C]                	PUSH	DWORD [_memman]
   556 000002A8 89 85 FFFFFC64                  	MOV	DWORD [-924+EBP],EAX
   557 000002AE E8 [00000000]                   	CALL	_memman_alloc_4K
   558 000002B3 8B 95 FFFFFC64                  	MOV	EDX,DWORD [-924+EBP]
   559 000002B9 05 0000FFF4                     	ADD	EAX,65524
   560 000002BE 8B 8D FFFFFC64                  	MOV	ECX,DWORD [-924+EBP]
   561 000002C4 83 C4 24                        	ADD	ESP,36
   562 000002C7 89 42 48                        	MOV	DWORD [72+EDX],EAX
   563 000002CA C7 42 30 [00000000]             	MOV	DWORD [48+EDX],_console_task
   564 000002D1 C7 42 58 00000008               	MOV	DWORD [88+EDX],8
   565 000002D8 C7 42 5C 00000010               	MOV	DWORD [92+EDX],16
   566 000002DF C7 42 60 00000008               	MOV	DWORD [96+EDX],8
   567 000002E6 C7 42 64 00000008               	MOV	DWORD [100+EDX],8
   568 000002ED C7 42 68 00000008               	MOV	DWORD [104+EDX],8
   569 000002F4 C7 42 6C 00000008               	MOV	DWORD [108+EDX],8
   570 000002FB 8B 95 FFFFFCB0                  	MOV	EDX,DWORD [-848+EBP]
   571 00000301 89 50 04                        	MOV	DWORD [4+EAX],EDX
   572 00000304 8B 41 48                        	MOV	EAX,DWORD [72+ECX]
   573 00000307 89 78 08                        	MOV	DWORD [8+EAX],EDI
   574 0000030A 6A 02                           	PUSH	2
   575 0000030C 6A 02                           	PUSH	2
   576 0000030E 51                              	PUSH	ECX
   577 0000030F E8 [00000000]                   	CALL	_task_run
   578 00000314 FF B5 FFFFFC90                  	PUSH	DWORD [-880+EBP]
   579 0000031A C7 85 FFFFFC60 00000010         	MOV	DWORD [-928+EBP],16
   580 00000324 C7 85 FFFFFC5C 00000000         	MOV	DWORD [-932+EBP],0
   581 0000032E E8 [00000000]                   	CALL	_updown_mouse
   582 00000333 83 C4 10                        	ADD	ESP,16
   583 00000336                                 L66:
   584 00000336 8D 5D B4                        	LEA	EBX,DWORD [-76+EBP]
   585 00000339 53                              	PUSH	EBX
   586 0000033A E8 [00000000]                   	CALL	_fifo32_status
   587 0000033F 59                              	POP	ECX
   588 00000340 85 C0                           	TEST	EAX,EAX
   589 00000342 7E 0D                           	JLE	L5
   590 00000344 83 BD FFFFFC74 00               	CMP	DWORD [-908+EBP],0
   591 0000034B 0F 88 00000731                  	JS	L73
   592 00000351                                 L5:
   593 00000351 8D 5D D4                        	LEA	EBX,DWORD [-44+EBP]
   594 00000354 E8 [00000000]                   	CALL	_io_cli
   595 00000359 53                              	PUSH	EBX
   596 0000035A E8 [00000000]                   	CALL	_fifo32_status
   597 0000035F 5A                              	POP	EDX
   598 00000360 85 C0                           	TEST	EAX,EAX
   599 00000362 0F 84 00000704                  	JE	L74
   600 00000368 53                              	PUSH	EBX
   601 00000369 E8 [00000000]                   	CALL	_fifo32_get
   602 0000036E 89 C6                           	MOV	ESI,EAX
   603 00000370 E8 [00000000]                   	CALL	_io_sti
   604 00000375 5F                              	POP	EDI
   605 00000376 8D 86 FFFFFF00                  	LEA	EAX,DWORD [-256+ESI]
   606 0000037C 3D 000000FF                     	CMP	EAX,255
   607 00000381 0F 86 00000219                  	JBE	L75
   608 00000387 8D 86 FFFFFE00                  	LEA	EAX,DWORD [-512+ESI]
   609 0000038D 3D 000000FF                     	CMP	EAX,255
   610 00000392 0F 86 000000DB                  	JBE	L76
   611 00000398 83 FE 01                        	CMP	ESI,1
   612 0000039B 7F 99                           	JG	L66
   613 0000039D 85 F6                           	TEST	ESI,ESI
   614 0000039F 0F 84 0000009E                  	JE	L61
   615 000003A5 6A 00                           	PUSH	0
   616 000003A7 8D 45 D4                        	LEA	EAX,DWORD [-44+EBP]
   617 000003AA 50                              	PUSH	EAX
   618 000003AB FF B5 FFFFFC6C                  	PUSH	DWORD [-916+EBP]
   619 000003B1 E8 [00000000]                   	CALL	_timer_init
   620 000003B6 83 C4 0C                        	ADD	ESP,12
   621 000003B9 83 BD FFFFFC5C 00               	CMP	DWORD [-932+EBP],0
   622 000003C0 78 0A                           	JS	L63
   623 000003C2 C7 85 FFFFFC5C 00000007         	MOV	DWORD [-932+EBP],7
   624 000003CC                                 L63:
   625 000003CC 6A 32                           	PUSH	50
   626 000003CE FF B5 FFFFFC6C                  	PUSH	DWORD [-916+EBP]
   627 000003D4 E8 [00000000]                   	CALL	_timer_settime
   628 000003D9 58                              	POP	EAX
   629 000003DA 5A                              	POP	EDX
   630 000003DB 83 BD FFFFFC5C 00               	CMP	DWORD [-932+EBP],0
   631 000003E2 0F 88 FFFFFF4E                  	JS	L66
   632 000003E8 8B 85 FFFFFC60                  	MOV	EAX,DWORD [-928+EBP]
   633 000003EE 6A 2D                           	PUSH	45
   634 000003F0 83 C0 07                        	ADD	EAX,7
   635 000003F3 50                              	PUSH	EAX
   636 000003F4 6A 1F                           	PUSH	31
   637 000003F6 FF B5 FFFFFC60                  	PUSH	DWORD [-928+EBP]
   638 000003FC 0F B6 85 FFFFFC5C               	MOVZX	EAX,BYTE [-932+EBP]
   639 00000403 50                              	PUSH	EAX
   640 00000404 8B 85 FFFFFCD0                  	MOV	EAX,DWORD [-816+EBP]
   641 0000040A FF 70 08                        	PUSH	DWORD [8+EAX]
   642 0000040D FF 30                           	PUSH	DWORD [EAX]
   643 0000040F E8 [00000000]                   	CALL	_boxfill8
   644 00000414 8B 85 FFFFFC60                  	MOV	EAX,DWORD [-928+EBP]
   645 0000041A 6A 2E                           	PUSH	46
   646 0000041C 83 C0 08                        	ADD	EAX,8
   647 0000041F 50                              	PUSH	EAX
   648 00000420 8B 85 FFFFFC90                  	MOV	EAX,DWORD [-880+EBP]
   649 00000426 6A 1F                           	PUSH	31
   650 00000428 FF B5 FFFFFC60                  	PUSH	DWORD [-928+EBP]
   651 0000042E FF B5 FFFFFCD0                  	PUSH	DWORD [-816+EBP]
   652 00000434 FF 30                           	PUSH	DWORD [EAX]
   653 00000436 E8 [00000000]                   	CALL	_sheet_refresh
   654 0000043B 83 C4 34                        	ADD	ESP,52
   655 0000043E E9 FFFFFEF3                     	JMP	L66
   656 00000443                                 L61:
   657 00000443 6A 01                           	PUSH	1
   658 00000445 8D 45 D4                        	LEA	EAX,DWORD [-44+EBP]
   659 00000448 50                              	PUSH	EAX
   660 00000449 FF B5 FFFFFC6C                  	PUSH	DWORD [-916+EBP]
   661 0000044F E8 [00000000]                   	CALL	_timer_init
   662 00000454 83 C4 0C                        	ADD	ESP,12
   663 00000457 83 BD FFFFFC5C 00               	CMP	DWORD [-932+EBP],0
   664 0000045E 0F 88 FFFFFF68                  	JS	L63
   665 00000464 C7 85 FFFFFC5C 00000000         	MOV	DWORD [-932+EBP],0
   666 0000046E E9 FFFFFF59                     	JMP	L63
   667 00000473                                 L76:
   668 00000473 89 F2                           	MOV	EDX,ESI
   669 00000475 0F B6 C2                        	MOVZX	EAX,DL
   670 00000478 50                              	PUSH	EAX
   671 00000479 8D 85 FFFFFD24                  	LEA	EAX,DWORD [-732+EBP]
   672 0000047F 50                              	PUSH	EAX
   673 00000480 E8 [00000000]                   	CALL	_mouse_decode
   674 00000485 59                              	POP	ECX
   675 00000486 5B                              	POP	EBX
   676 00000487 85 C0                           	TEST	EAX,EAX
   677 00000489 0F 84 FFFFFEA7                  	JE	L66
   678 0000048F 8B 8D FFFFFD2C                  	MOV	ECX,DWORD [-724+EBP]
   679 00000495 8B 85 FFFFFD28                  	MOV	EAX,DWORD [-728+EBP]
   680 0000049B 01 8D FFFFFC88                  	ADD	DWORD [-888+EBP],ECX
   681 000004A1 01 85 FFFFFC8C                  	ADD	DWORD [-884+EBP],EAX
   682 000004A7 0F 88 000000E4                  	JS	L77
   683 000004AD                                 L47:
   684 000004AD 83 BD FFFFFC88 00               	CMP	DWORD [-888+EBP],0
   685 000004B4 0F 88 000000C8                  	JS	L78
   686 000004BA                                 L48:
   687 000004BA 8B 8D FFFFFC90                  	MOV	ECX,DWORD [-880+EBP]
   688 000004C0 8B 11                           	MOV	EDX,DWORD [ECX]
   689 000004C2 8B 42 08                        	MOV	EAX,DWORD [8+EDX]
   690 000004C5 48                              	DEC	EAX
   691 000004C6 39 85 FFFFFC8C                  	CMP	DWORD [-884+EBP],EAX
   692 000004CC 7E 06                           	JLE	L49
   693 000004CE 89 85 FFFFFC8C                  	MOV	DWORD [-884+EBP],EAX
   694 000004D4                                 L49:
   695 000004D4 8B 42 0C                        	MOV	EAX,DWORD [12+EDX]
   696 000004D7 48                              	DEC	EAX
   697 000004D8 39 85 FFFFFC88                  	CMP	DWORD [-888+EBP],EAX
   698 000004DE 7E 06                           	JLE	L50
   699 000004E0 89 85 FFFFFC88                  	MOV	DWORD [-888+EBP],EAX
   700 000004E6                                 L50:
   701 000004E6 FF B5 FFFFFC88                  	PUSH	DWORD [-888+EBP]
   702 000004EC 8B 85 FFFFFC84                  	MOV	EAX,DWORD [-892+EBP]
   703 000004F2 8B 95 FFFFFC90                  	MOV	EDX,DWORD [-880+EBP]
   704 000004F8 FF B5 FFFFFC8C                  	PUSH	DWORD [-884+EBP]
   705 000004FE FF 70 14                        	PUSH	DWORD [20+EAX]
   706 00000501 FF 32                           	PUSH	DWORD [EDX]
   707 00000503 E8 [00000000]                   	CALL	_sheet_slide
   708 00000508 83 C4 10                        	ADD	ESP,16
   709 0000050B F7 85 FFFFFD30 00000001         	TEST	DWORD [-720+EBP],1
   710 00000515 0F 84 FFFFFE1B                  	JE	L66
   711 0000051B 8B 8D FFFFFC90                  	MOV	ECX,DWORD [-880+EBP]
   712 00000521 8B 31                           	MOV	ESI,DWORD [ECX]
   713 00000523 8B 5E 10                        	MOV	EBX,DWORD [16+ESI]
   714 00000526                                 L72:
   715 00000526 4B                              	DEC	EBX
   716 00000527 85 DB                           	TEST	EBX,EBX
   717 00000529 0F 8E FFFFFE07                  	JLE	L66
   718 0000052F 8B 4C 9E 14                     	MOV	ECX,DWORD [20+ESI+EBX*4]
   719 00000533 8B 95 FFFFFC88                  	MOV	EDX,DWORD [-888+EBP]
   720 00000539 8B BD FFFFFC8C                  	MOV	EDI,DWORD [-884+EBP]
   721 0000053F 2B 51 14                        	SUB	EDX,DWORD [20+ECX]
   722 00000542 2B 79 10                        	SUB	EDI,DWORD [16+ECX]
   723 00000545 78 DF                           	JS	L72
   724 00000547 8B 41 08                        	MOV	EAX,DWORD [8+ECX]
   725 0000054A 39 C7                           	CMP	EDI,EAX
   726 0000054C 7D D8                           	JGE	L72
   727 0000054E 85 D2                           	TEST	EDX,EDX
   728 00000550 78 D4                           	JS	L72
   729 00000552 3B 51 0C                        	CMP	EDX,DWORD [12+ECX]
   730 00000555 7D CF                           	JGE	L72
   731 00000557 0F AF D0                        	IMUL	EDX,EAX
   732 0000055A 8B 01                           	MOV	EAX,DWORD [ECX]
   733 0000055C 01 FA                           	ADD	EDX,EDI
   734 0000055E 0F B6 04 02                     	MOVZX	EAX,BYTE [EDX+EAX*1]
   735 00000562 3B 41 18                        	CMP	EAX,DWORD [24+ECX]
   736 00000565 74 BF                           	JE	L72
   737 00000567 8B 46 10                        	MOV	EAX,DWORD [16+ESI]
   738 0000056A 48                              	DEC	EAX
   739 0000056B 50                              	PUSH	EAX
   740 0000056C 8B 85 FFFFFC90                  	MOV	EAX,DWORD [-880+EBP]
   741 00000572 51                              	PUSH	ECX
   742 00000573 FF 30                           	PUSH	DWORD [EAX]
   743 00000575 E8 [00000000]                   	CALL	_sheet_updown
   744 0000057A 83 C4 0C                        	ADD	ESP,12
   745 0000057D E9 FFFFFDB4                     	JMP	L66
   746 00000582                                 L78:
   747 00000582 C7 85 FFFFFC88 00000000         	MOV	DWORD [-888+EBP],0
   748 0000058C E9 FFFFFF29                     	JMP	L48
   749 00000591                                 L77:
   750 00000591 C7 85 FFFFFC8C 00000000         	MOV	DWORD [-884+EBP],0
   751 0000059B E9 FFFFFF0D                     	JMP	L47
   752 000005A0                                 L75:
   753 000005A0 81 FE 0000017F                  	CMP	ESI,383
   754 000005A6 0F 8F 000004B4                  	JG	L9
   755 000005AC 83 BD FFFFFC7C 00               	CMP	DWORD [-900+EBP],0
   756 000005B3 0F 85 0000049C                  	JNE	L10
   757 000005B9 8A 86 [FFFFFF54]                	MOV	AL,BYTE [_keytable0.1-256+ESI]
   758 000005BF                                 L71:
   759 000005BF 88 85 FFFFFCF4                  	MOV	BYTE [-780+EBP],AL
   760 000005C5                                 L12:
   761 000005C5 8A 95 FFFFFCF4                  	MOV	DL,BYTE [-780+EBP]
   762 000005CB 8D 42 BF                        	LEA	EAX,DWORD [-65+EDX]
   763 000005CE 3C 19                           	CMP	AL,25
   764 000005D0 77 1D                           	JA	L13
   765 000005D2 F7 85 FFFFFC78 00000004         	TEST	DWORD [-904+EBP],4
   766 000005DC 0F 85 00000464                  	JNE	L69
   767 000005E2 83 BD FFFFFC7C 00               	CMP	DWORD [-900+EBP],0
   768 000005E9 0F 84 00000449                  	JE	L15
   769 000005EF                                 L13:
   770 000005EF 8A 85 FFFFFCF4                  	MOV	AL,BYTE [-780+EBP]
   771 000005F5 84 C0                           	TEST	AL,AL
   772 000005F7 74 4F                           	JE	L17
   773 000005F9 83 BD FFFFFC80 00               	CMP	DWORD [-896+EBP],0
   774 00000600 0F 85 00000414                  	JNE	L18
   775 00000606 83 BD FFFFFC60 7F               	CMP	DWORD [-928+EBP],127
   776 0000060D 7F 39                           	JG	L17
   777 0000060F 6A 01                           	PUSH	1
   778 00000611 8D 85 FFFFFCF4                  	LEA	EAX,DWORD [-780+EBP]
   779 00000617 50                              	PUSH	EAX
   780 00000618 8B 95 FFFFFC90                  	MOV	EDX,DWORD [-880+EBP]
   781 0000061E 6A 00                           	PUSH	0
   782 00000620 6A 07                           	PUSH	7
   783 00000622 6A 1F                           	PUSH	31
   784 00000624 FF B5 FFFFFC60                  	PUSH	DWORD [-928+EBP]
   785 0000062A FF B5 FFFFFCD0                  	PUSH	DWORD [-816+EBP]
   786 00000630 C6 85 FFFFFCF5 00               	MOV	BYTE [-779+EBP],0
   787 00000637 FF 32                           	PUSH	DWORD [EDX]
   788 00000639 E8 [00000000]                   	CALL	_putfonts8_asc_sht
   789 0000063E 83 C4 20                        	ADD	ESP,32
   790 00000641 83 85 FFFFFC60 08               	ADD	DWORD [-928+EBP],8
   791 00000648                                 L17:
   792 00000648 81 FE 0000010E                  	CMP	ESI,270
   793 0000064E 0F 84 00000361                  	JE	L79
   794 00000654                                 L21:
   795 00000654 81 FE 0000011C                  	CMP	ESI,284
   796 0000065A 0F 84 0000032E                  	JE	L80
   797 00000660                                 L25:
   798 00000660 81 FE 0000010F                  	CMP	ESI,271
   799 00000666 0F 84 0000025E                  	JE	L81
   800 0000066C                                 L27:
   801 0000066C 81 FE 0000012A                  	CMP	ESI,298
   802 00000672 0F 84 00000246                  	JE	L82
   803 00000678                                 L30:
   804 00000678 81 FE 00000136                  	CMP	ESI,310
   805 0000067E 0F 84 0000022E                  	JE	L83
   806 00000684                                 L31:
   807 00000684 81 FE 000001AA                  	CMP	ESI,426
   808 0000068A 0F 84 00000216                  	JE	L84
   809 00000690                                 L32:
   810 00000690 81 FE 000001B6                  	CMP	ESI,438
   811 00000696 0F 84 000001FE                  	JE	L85
   812 0000069C                                 L33:
   813 0000069C 81 FE 0000011D                  	CMP	ESI,285
   814 000006A2 0F 84 000001E6                  	JE	L86
   815 000006A8                                 L34:
   816 000006A8 81 FE 0000019D                  	CMP	ESI,413
   817 000006AE 0F 84 000001CE                  	JE	L87
   818 000006B4                                 L35:
   819 000006B4 81 FE 0000013A                  	CMP	ESI,314
   820 000006BA 0F 84 00000199                  	JE	L88
   821 000006C0                                 L36:
   822 000006C0 81 FE 00000145                  	CMP	ESI,325
   823 000006C6 0F 84 00000164                  	JE	L89
   824 000006CC                                 L37:
   825 000006CC 81 FE 00000146                  	CMP	ESI,326
   826 000006D2 0F 84 0000012F                  	JE	L90
   827 000006D8                                 L38:
   828 000006D8 81 FE 0000012E                  	CMP	ESI,302
   829 000006DE 0F 84 000000CC                  	JE	L91
   830 000006E4                                 L39:
   831 000006E4 81 FE 00000157                  	CMP	ESI,343
   832 000006EA 0F 84 00000096                  	JE	L92
   833 000006F0                                 L40:
   834 000006F0 81 FE 000001FA                  	CMP	ESI,506
   835 000006F6 74 7F                           	JE	L93
   836 000006F8                                 L41:
   837 000006F8 81 FE 000001FE                  	CMP	ESI,510
   838 000006FE 74 61                           	JE	L94
   839 00000700                                 L42:
   840 00000700 83 BD FFFFFC5C 00               	CMP	DWORD [-932+EBP],0
   841 00000707 78 29                           	JS	L43
   842 00000709 8B 85 FFFFFC60                  	MOV	EAX,DWORD [-928+EBP]
   843 0000070F 6A 2D                           	PUSH	45
   844 00000711 83 C0 07                        	ADD	EAX,7
   845 00000714 50                              	PUSH	EAX
   846 00000715 8B 85 FFFFFCD0                  	MOV	EAX,DWORD [-816+EBP]
   847 0000071B 6A 1F                           	PUSH	31
   848 0000071D FF B5 FFFFFC60                  	PUSH	DWORD [-928+EBP]
   849 00000723 6A 0F                           	PUSH	15
   850 00000725 FF 70 08                        	PUSH	DWORD [8+EAX]
   851 00000728 FF 30                           	PUSH	DWORD [EAX]
   852 0000072A E8 [00000000]                   	CALL	_boxfill8
   853 0000072F 83 C4 1C                        	ADD	ESP,28
   854 00000732                                 L43:
   855 00000732 8B 85 FFFFFC60                  	MOV	EAX,DWORD [-928+EBP]
   856 00000738 6A 2E                           	PUSH	46
   857 0000073A 83 C0 08                        	ADD	EAX,8
   858 0000073D 50                              	PUSH	EAX
   859 0000073E 8B 85 FFFFFC90                  	MOV	EAX,DWORD [-880+EBP]
   860 00000744 6A 1F                           	PUSH	31
   861 00000746 FF B5 FFFFFC60                  	PUSH	DWORD [-928+EBP]
   862 0000074C FF B5 FFFFFCD0                  	PUSH	DWORD [-816+EBP]
   863 00000752 FF 30                           	PUSH	DWORD [EAX]
   864 00000754 E8 [00000000]                   	CALL	_sheet_refresh
   865 00000759 83 C4 18                        	ADD	ESP,24
   866 0000075C E9 FFFFFBD5                     	JMP	L66
   867 00000761                                 L94:
   868 00000761 E8 [00000000]                   	CALL	_wait_KBC_sendready
   869 00000766 FF B5 FFFFFC74                  	PUSH	DWORD [-908+EBP]
   870 0000076C 6A 60                           	PUSH	96
   871 0000076E E8 [00000000]                   	CALL	_io_out8
   872 00000773 5E                              	POP	ESI
   873 00000774 5F                              	POP	EDI
   874 00000775 EB 89                           	JMP	L42
   875 00000777                                 L93:
   876 00000777 C7 85 FFFFFC74 FFFFFFFF         	MOV	DWORD [-908+EBP],-1
   877 00000781 E9 FFFFFF72                     	JMP	L41
   878 00000786                                 L92:
   879 00000786 8B 8D FFFFFC90                  	MOV	ECX,DWORD [-880+EBP]
   880 0000078C 8B 01                           	MOV	EAX,DWORD [ECX]
   881 0000078E 8B 40 10                        	MOV	EAX,DWORD [16+EAX]
   882 00000791 83 F8 02                        	CMP	EAX,2
   883 00000794 0F 8E FFFFFF56                  	JLE	L40
   884 0000079A 48                              	DEC	EAX
   885 0000079B 50                              	PUSH	EAX
   886 0000079C 8B 01                           	MOV	EAX,DWORD [ECX]
   887 0000079E FF 70 18                        	PUSH	DWORD [24+EAX]
   888 000007A1 FF 31                           	PUSH	DWORD [ECX]
   889 000007A3 E8 [00000000]                   	CALL	_sheet_updown
   890 000007A8 83 C4 0C                        	ADD	ESP,12
   891 000007AB E9 FFFFFF40                     	JMP	L40
   892 000007B0                                 L91:
   893 000007B0 83 BD FFFFFC70 00               	CMP	DWORD [-912+EBP],0
   894 000007B7 0F 84 FFFFFF27                  	JE	L39
   895 000007BD 8B 8D FFFFFC64                  	MOV	ECX,DWORD [-924+EBP]
   896 000007C3 83 79 18 00                     	CMP	DWORD [24+ECX],0
   897 000007C7 0F 84 FFFFFF17                  	JE	L39
   898 000007CD 68 [00000154]                   	PUSH	LC1
   899 000007D2 FF 35 00000FEC                  	PUSH	DWORD [4076]
   900 000007D8 E8 [00000000]                   	CALL	_cons_putstr
   901 000007DD E8 [00000000]                   	CALL	_io_cli
   902 000007E2 8B 95 FFFFFC64                  	MOV	EDX,DWORD [-924+EBP]
   903 000007E8 8B 85 FFFFFC64                  	MOV	EAX,DWORD [-924+EBP]
   904 000007EE 83 C0 14                        	ADD	EAX,20
   905 000007F1 89 42 38                        	MOV	DWORD [56+EDX],EAX
   906 000007F4 C7 42 30 [00000000]             	MOV	DWORD [48+EDX],_asm_end_app
   907 000007FB E8 [00000000]                   	CALL	_io_sti
   908 00000800 58                              	POP	EAX
   909 00000801 5A                              	POP	EDX
   910 00000802 E9 FFFFFEDD                     	JMP	L39
   911 00000807                                 L90:
   912 00000807 68 000000ED                     	PUSH	237
   913 0000080C 8D 5D B4                        	LEA	EBX,DWORD [-76+EBP]
   914 0000080F 53                              	PUSH	EBX
   915 00000810 83 B5 FFFFFC78 01               	XOR	DWORD [-904+EBP],1
   916 00000817 E8 [00000000]                   	CALL	_fifo32_put
   917 0000081C FF B5 FFFFFC78                  	PUSH	DWORD [-904+EBP]
   918 00000822 53                              	PUSH	EBX
   919 00000823 E8 [00000000]                   	CALL	_fifo32_put
   920 00000828 83 C4 10                        	ADD	ESP,16
   921 0000082B E9 FFFFFEA8                     	JMP	L38
   922 00000830                                 L89:
   923 00000830 68 000000ED                     	PUSH	237
   924 00000835 8D 5D B4                        	LEA	EBX,DWORD [-76+EBP]
   925 00000838 53                              	PUSH	EBX
   926 00000839 83 B5 FFFFFC78 02               	XOR	DWORD [-904+EBP],2
   927 00000840 E8 [00000000]                   	CALL	_fifo32_put
   928 00000845 FF B5 FFFFFC78                  	PUSH	DWORD [-904+EBP]
   929 0000084B 53                              	PUSH	EBX
   930 0000084C E8 [00000000]                   	CALL	_fifo32_put
   931 00000851 83 C4 10                        	ADD	ESP,16
   932 00000854 E9 FFFFFE73                     	JMP	L37
   933 00000859                                 L88:
   934 00000859 68 000000ED                     	PUSH	237
   935 0000085E 8D 5D B4                        	LEA	EBX,DWORD [-76+EBP]
   936 00000861 53                              	PUSH	EBX
   937 00000862 83 B5 FFFFFC78 04               	XOR	DWORD [-904+EBP],4
   938 00000869 E8 [00000000]                   	CALL	_fifo32_put
   939 0000086E FF B5 FFFFFC78                  	PUSH	DWORD [-904+EBP]
   940 00000874 53                              	PUSH	EBX
   941 00000875 E8 [00000000]                   	CALL	_fifo32_put
   942 0000087A 83 C4 10                        	ADD	ESP,16
   943 0000087D E9 FFFFFE3E                     	JMP	L36
   944 00000882                                 L87:
   945 00000882 83 A5 FFFFFC70 FE               	AND	DWORD [-912+EBP],-2
   946 00000889 E9 FFFFFE26                     	JMP	L35
   947 0000088E                                 L86:
   948 0000088E 83 8D FFFFFC70 01               	OR	DWORD [-912+EBP],1
   949 00000895 E9 FFFFFE0E                     	JMP	L34
   950 0000089A                                 L85:
   951 0000089A 83 A5 FFFFFC7C FD               	AND	DWORD [-900+EBP],-3
   952 000008A1 E9 FFFFFDF6                     	JMP	L33
   953 000008A6                                 L84:
   954 000008A6 83 A5 FFFFFC7C FE               	AND	DWORD [-900+EBP],-2
   955 000008AD E9 FFFFFDDE                     	JMP	L32
   956 000008B2                                 L83:
   957 000008B2 83 8D FFFFFC7C 02               	OR	DWORD [-900+EBP],2
   958 000008B9 E9 FFFFFDC6                     	JMP	L31
   959 000008BE                                 L82:
   960 000008BE 83 8D FFFFFC7C 01               	OR	DWORD [-900+EBP],1
   961 000008C5 E9 FFFFFDAE                     	JMP	L30
   962 000008CA                                 L81:
   963 000008CA 83 BD FFFFFC80 00               	CMP	DWORD [-896+EBP],0
   964 000008D1 75 73                           	JNE	L28
   965 000008D3 6A 00                           	PUSH	0
   966 000008D5 8D 85 FFFFFC94                  	LEA	EAX,DWORD [-876+EBP]
   967 000008DB 50                              	PUSH	EAX
   968 000008DC C7 85 FFFFFC80 00000001         	MOV	DWORD [-896+EBP],1
   969 000008E6 E8 [00000000]                   	CALL	_Sel_Console
   970 000008EB 8D 85 FFFFFCB4                  	LEA	EAX,DWORD [-844+EBP]
   971 000008F1 6A 01                           	PUSH	1
   972 000008F3 50                              	PUSH	EAX
   973 000008F4 E8 [00000000]                   	CALL	_Sel_window
   974 000008F9 8B 85 FFFFFC60                  	MOV	EAX,DWORD [-928+EBP]
   975 000008FF 6A 2E                           	PUSH	46
   976 00000901 83 C0 07                        	ADD	EAX,7
   977 00000904 50                              	PUSH	EAX
   978 00000905 8B 85 FFFFFCD0                  	MOV	EAX,DWORD [-816+EBP]
   979 0000090B 6A 1F                           	PUSH	31
   980 0000090D FF B5 FFFFFC60                  	PUSH	DWORD [-928+EBP]
   981 00000913 6A 00                           	PUSH	0
   982 00000915 FF B5 FFFFFCC8                  	PUSH	DWORD [-824+EBP]
   983 0000091B FF 30                           	PUSH	DWORD [EAX]
   984 0000091D C7 85 FFFFFC5C FFFFFFFF         	MOV	DWORD [-932+EBP],-1
   985 00000927 E8 [00000000]                   	CALL	_boxfill8
   986 0000092C 8B 85 FFFFFC64                  	MOV	EAX,DWORD [-924+EBP]
   987 00000932 83 C4 2C                        	ADD	ESP,44
   988 00000935 6A 02                           	PUSH	2
   989 00000937 FF 70 78                        	PUSH	DWORD [120+EAX]
   990 0000093A E8 [00000000]                   	CALL	_fifo32_put
   991 0000093F 59                              	POP	ECX
   992 00000940 5B                              	POP	EBX
   993 00000941 E9 FFFFFD26                     	JMP	L27
   994 00000946                                 L28:
   995 00000946 6A 01                           	PUSH	1
   996 00000948 8D 85 FFFFFC94                  	LEA	EAX,DWORD [-876+EBP]
   997 0000094E 50                              	PUSH	EAX
   998 0000094F C7 85 FFFFFC80 00000000         	MOV	DWORD [-896+EBP],0
   999 00000959 E8 [00000000]                   	CALL	_Sel_Console
  1000 0000095E 8D 85 FFFFFCB4                  	LEA	EAX,DWORD [-844+EBP]
  1001 00000964 6A 00                           	PUSH	0
  1002 00000966 50                              	PUSH	EAX
  1003 00000967 E8 [00000000]                   	CALL	_Sel_window
  1004 0000096C 8B 95 FFFFFC64                  	MOV	EDX,DWORD [-924+EBP]
  1005 00000972 6A 03                           	PUSH	3
  1006 00000974 FF 72 78                        	PUSH	DWORD [120+EDX]
  1007 00000977 C7 85 FFFFFC5C 00000007         	MOV	DWORD [-932+EBP],7
  1008 00000981 E8 [00000000]                   	CALL	_fifo32_put
  1009 00000986 83 C4 18                        	ADD	ESP,24
  1010 00000989 E9 FFFFFCDE                     	JMP	L27
  1011 0000098E                                 L80:
  1012 0000098E 83 BD FFFFFC80 00               	CMP	DWORD [-896+EBP],0
  1013 00000995 0F 84 FFFFFCC5                  	JE	L25
  1014 0000099B 8B 8D FFFFFC64                  	MOV	ECX,DWORD [-924+EBP]
  1015 000009A1 68 0000010A                     	PUSH	266
  1016 000009A6 FF 71 78                        	PUSH	DWORD [120+ECX]
  1017 000009A9 E8 [00000000]                   	CALL	_fifo32_put
  1018 000009AE 5F                              	POP	EDI
  1019 000009AF 58                              	POP	EAX
  1020 000009B0 E9 FFFFFCAB                     	JMP	L25
  1021 000009B5                                 L79:
  1022 000009B5 83 BD FFFFFC80 00               	CMP	DWORD [-896+EBP],0
  1023 000009BC 75 42                           	JNE	L22
  1024 000009BE 83 BD FFFFFC60 10               	CMP	DWORD [-928+EBP],16
  1025 000009C5 0F 8E FFFFFC89                  	JLE	L21
  1026 000009CB 6A 01                           	PUSH	1
  1027 000009CD 8B 85 FFFFFC90                  	MOV	EAX,DWORD [-880+EBP]
  1028 000009D3 68 [00000163]                   	PUSH	LC0
  1029 000009D8 6A 00                           	PUSH	0
  1030 000009DA 6A 07                           	PUSH	7
  1031 000009DC 6A 1F                           	PUSH	31
  1032 000009DE FF B5 FFFFFC60                  	PUSH	DWORD [-928+EBP]
  1033 000009E4 FF B5 FFFFFCD0                  	PUSH	DWORD [-816+EBP]
  1034 000009EA FF 30                           	PUSH	DWORD [EAX]
  1035 000009EC E8 [00000000]                   	CALL	_putfonts8_asc_sht
  1036 000009F1 83 C4 20                        	ADD	ESP,32
  1037 000009F4 83 AD FFFFFC60 08               	SUB	DWORD [-928+EBP],8
  1038 000009FB E9 FFFFFC54                     	JMP	L21
  1039 00000A00                                 L22:
  1040 00000A00 8B 95 FFFFFC64                  	MOV	EDX,DWORD [-924+EBP]
  1041 00000A06 68 00000108                     	PUSH	264
  1042 00000A0B FF 72 78                        	PUSH	DWORD [120+EDX]
  1043 00000A0E E8 [00000000]                   	CALL	_fifo32_put
  1044 00000A13 58                              	POP	EAX
  1045 00000A14 5A                              	POP	EDX
  1046 00000A15 E9 FFFFFC3A                     	JMP	L21
  1047 00000A1A                                 L18:
  1048 00000A1A 0F BE C0                        	MOVSX	EAX,AL
  1049 00000A1D 8B 8D FFFFFC64                  	MOV	ECX,DWORD [-924+EBP]
  1050 00000A23 05 00000100                     	ADD	EAX,256
  1051 00000A28 50                              	PUSH	EAX
  1052 00000A29 FF 71 78                        	PUSH	DWORD [120+ECX]
  1053 00000A2C E8 [00000000]                   	CALL	_fifo32_put
  1054 00000A31 59                              	POP	ECX
  1055 00000A32 5B                              	POP	EBX
  1056 00000A33 E9 FFFFFC10                     	JMP	L17
  1057 00000A38                                 L15:
  1058 00000A38 8D 42 20                        	LEA	EAX,DWORD [32+EDX]
  1059 00000A3B 88 85 FFFFFCF4                  	MOV	BYTE [-780+EBP],AL
  1060 00000A41 E9 FFFFFBA9                     	JMP	L13
  1061 00000A46                                 L69:
  1062 00000A46 83 BD FFFFFC7C 00               	CMP	DWORD [-900+EBP],0
  1063 00000A4D 0F 84 FFFFFB9C                  	JE	L13
  1064 00000A53 EB E3                           	JMP	L15
  1065 00000A55                                 L10:
  1066 00000A55 8A 86 [FFFFFFD4]                	MOV	AL,BYTE [_keytable1.2-256+ESI]
  1067 00000A5B E9 FFFFFB5F                     	JMP	L71
  1068 00000A60                                 L9:
  1069 00000A60 C6 85 FFFFFCF4 00               	MOV	BYTE [-780+EBP],0
  1070 00000A67 E9 FFFFFB59                     	JMP	L12
  1071 00000A6C                                 L74:
  1072 00000A6C FF B5 FFFFFC68                  	PUSH	DWORD [-920+EBP]
  1073 00000A72 E8 [00000000]                   	CALL	_task_sleep
  1074 00000A77 E8 [00000000]                   	CALL	_io_sti
  1075 00000A7C 58                              	POP	EAX
  1076 00000A7D E9 FFFFF8B4                     	JMP	L66
  1077 00000A82                                 L73:
  1078 00000A82 53                              	PUSH	EBX
  1079 00000A83 E8 [00000000]                   	CALL	_fifo32_get
  1080 00000A88 89 85 FFFFFC74                  	MOV	DWORD [-908+EBP],EAX
  1081 00000A8E E8 [00000000]                   	CALL	_wait_KBC_sendready
  1082 00000A93 FF B5 FFFFFC74                  	PUSH	DWORD [-908+EBP]
  1083 00000A99 6A 60                           	PUSH	96
  1084 00000A9B E8 [00000000]                   	CALL	_io_out8
  1085 00000AA0 83 C4 0C                        	ADD	ESP,12
  1086 00000AA3 E9 FFFFF8A9                     	JMP	L5
  1087 00000AA8                                 L67:
  1088                                          [SECTION .data]
  1089 00000165                                 LC2:
  1090 00000165 25 31 31 64 00                  	DB	"%11d",0x00
  1091                                          [SECTION .text]
  1092 00000AA8                                 	GLOBAL	_task_b_main
  1093 00000AA8                                 _task_b_main:
  1094 00000AA8 55                              	PUSH	EBP
  1095 00000AA9 89 E5                           	MOV	EBP,ESP
  1096 00000AAB 57                              	PUSH	EDI
  1097 00000AAC 56                              	PUSH	ESI
  1098 00000AAD 31 FF                           	XOR	EDI,EDI
  1099 00000AAF 53                              	PUSH	EBX
  1100 00000AB0 8D 85 FFFFFDD4                  	LEA	EAX,DWORD [-556+EBP]
  1101 00000AB6 81 EC 00000230                  	SUB	ESP,560
  1102 00000ABC 8D 5D D4                        	LEA	EBX,DWORD [-44+EBP]
  1103 00000ABF 6A 00                           	PUSH	0
  1104 00000AC1 50                              	PUSH	EAX
  1105 00000AC2 68 00000080                     	PUSH	128
  1106 00000AC7 53                              	PUSH	EBX
  1107 00000AC8 E8 [00000000]                   	CALL	_fifo32_init
  1108 00000ACD E8 [00000000]                   	CALL	_timer_alloc
  1109 00000AD2 6A 64                           	PUSH	100
  1110 00000AD4 53                              	PUSH	EBX
  1111 00000AD5 89 C6                           	MOV	ESI,EAX
  1112 00000AD7 50                              	PUSH	EAX
  1113 00000AD8 E8 [00000000]                   	CALL	_timer_init
  1114 00000ADD 6A 64                           	PUSH	100
  1115 00000ADF 56                              	PUSH	ESI
  1116 00000AE0 E8 [00000000]                   	CALL	_timer_settime
  1117 00000AE5 83 C4 24                        	ADD	ESP,36
  1118 00000AE8                                 L96:
  1119 00000AE8 8D 5D D4                        	LEA	EBX,DWORD [-44+EBP]
  1120 00000AEB E8 [00000000]                   	CALL	_io_cli
  1121 00000AF0 53                              	PUSH	EBX
  1122 00000AF1 47                              	INC	EDI
  1123 00000AF2 E8 [00000000]                   	CALL	_fifo32_status
  1124 00000AF7 5A                              	POP	EDX
  1125 00000AF8 85 C0                           	TEST	EAX,EAX
  1126 00000AFA 74 4A                           	JE	L102
  1127 00000AFC 53                              	PUSH	EBX
  1128 00000AFD E8 [00000000]                   	CALL	_fifo32_get
  1129 00000B02 89 C3                           	MOV	EBX,EAX
  1130 00000B04 E8 [00000000]                   	CALL	_io_sti
  1131 00000B09 58                              	POP	EAX
  1132 00000B0A 83 FB 64                        	CMP	EBX,100
  1133 00000B0D 75 D9                           	JNE	L96
  1134 00000B0F 57                              	PUSH	EDI
  1135 00000B10 8D 9D FFFFFDC4                  	LEA	EBX,DWORD [-572+EBP]
  1136 00000B16 68 [00000165]                   	PUSH	LC2
  1137 00000B1B 53                              	PUSH	EBX
  1138 00000B1C E8 [00000000]                   	CALL	_sprintf
  1139 00000B21 6A 0B                           	PUSH	11
  1140 00000B23 53                              	PUSH	EBX
  1141 00000B24 6A 11                           	PUSH	17
  1142 00000B26 6A 0E                           	PUSH	14
  1143 00000B28 6A 1C                           	PUSH	28
  1144 00000B2A 6A 18                           	PUSH	24
  1145 00000B2C FF 75 08                        	PUSH	DWORD [8+EBP]
  1146 00000B2F FF 75 0C                        	PUSH	DWORD [12+EBP]
  1147 00000B32 E8 [00000000]                   	CALL	_putfonts8_asc_sht
  1148 00000B37 83 C4 2C                        	ADD	ESP,44
  1149 00000B3A 6A 64                           	PUSH	100
  1150 00000B3C 56                              	PUSH	ESI
  1151 00000B3D E8 [00000000]                   	CALL	_timer_settime
  1152 00000B42 5B                              	POP	EBX
  1153 00000B43 58                              	POP	EAX
  1154 00000B44 EB A2                           	JMP	L96
  1155 00000B46                                 L102:
  1156 00000B46 E8 [00000000]                   	CALL	_io_sti
  1157 00000B4B EB 9B                           	JMP	L96
  1158 00000B4D                                 	GLOBAL	_memman
  1159                                          [SECTION .data]
  1160 0000016A 00 00                           	ALIGNB	4
  1161 0000016C                                 _memman:
  1162 0000016C 00 00 00 00                     	RESB	4
  1163 00000170                                 	GLOBAL	_mem_total
  1164                                          [SECTION .data]
  1165 00000170                                 	ALIGNB	4
  1166 00000170                                 _mem_total:
  1167 00000170 00 00 00 00                     	RESB	4
