     1 00000000                                 [FORMAT "WCOFF"]
     2 00000000                                 [INSTRSET "i486p"]
     3 00000000                                 [OPTIMIZE 1]
     4 00000000                                 [OPTION 1]
     5 00000000                                 [BITS 32]
     6 00000000                                 	EXTERN	_init_gdtidt
     7 00000000                                 	EXTERN	_init_pic
     8 00000000                                 	EXTERN	_io_sti
     9 00000000                                 	EXTERN	_init_pit
    10 00000000                                 	EXTERN	_Allow_InterruptMask
    11 00000000                                 	EXTERN	_memtest
    12 00000000                                 	EXTERN	_memman_init
    13 00000000                                 	EXTERN	_memman_free
    14 00000000                                 	EXTERN	_memman_alloc_4K
    15 00000000                                 	EXTERN	_init_palette
    16 00000000                                 	EXTERN	_sheet
    17 00000000                                 	EXTERN	_fifo32_init
    18 00000000                                 	EXTERN	_init_keyboard
    19 00000000                                 	EXTERN	_enable_mouse
    20 00000000                                 	EXTERN	_fifo32_put
    21 00000000                                 	EXTERN	_Command_int
    22 00000000                                 	EXTERN	_timer_alloc
    23 00000000                                 	EXTERN	_timer_init
    24 00000000                                 	EXTERN	_timer_settime
    25 00000000                                 	EXTERN	_task_init
    26 00000000                                 	EXTERN	_task_run
    27 00000000                                 	EXTERN	_Make_Win1
    28 00000000                                 	EXTERN	_Sel_window
    29 00000000                                 	EXTERN	_Make_Console
    30 00000000                                 	EXTERN	_task_alloc
    31 00000000                                 	EXTERN	_console_task
    32 00000000                                 	EXTERN	_updown_mouse
    33 00000000                                 	EXTERN	_fifo32_status
    34 00000000                                 	EXTERN	_io_cli
    35 00000000                                 	EXTERN	_fifo32_get
    36 00000000                                 	EXTERN	_boxfill8
    37 00000000                                 	EXTERN	_sheet_refresh
    38 00000000                                 	EXTERN	_mouse_decode
    39 00000000                                 	EXTERN	_sheet_slide
    40 00000000                                 	EXTERN	_keytable0.1
    41 00000000                                 	EXTERN	_putfonts8_asc_sht
    42 00000000                                 	EXTERN	_wait_KBC_sendready
    43 00000000                                 	EXTERN	_io_out8
    44 00000000                                 	EXTERN	_sheet_updown
    45 00000000                                 	EXTERN	_cons_putstr
    46 00000000                                 	EXTERN	_asm_end_app
    47 00000000                                 	EXTERN	_Sel_Console
    48 00000000                                 	EXTERN	_keytable1.2
    49 00000000                                 	EXTERN	_task_sleep
    50 00000000                                 	EXTERN	_sprintf
    51 00000000                                 [FILE "bootpack.c"]
    52                                          [SECTION .data]
    53 00000000                                 _keytable.0:
    54 00000000 00                              	DB	0
    55 00000001 00                              	DB	0
    56 00000002 31                              	DB	49
    57 00000003 32                              	DB	50
    58 00000004 33                              	DB	51
    59 00000005 34                              	DB	52
    60 00000006 35                              	DB	53
    61 00000007 36                              	DB	54
    62 00000008 37                              	DB	55
    63 00000009 38                              	DB	56
    64 0000000A 39                              	DB	57
    65 0000000B 30                              	DB	48
    66 0000000C 2D                              	DB	45
    67 0000000D 5E                              	DB	94
    68 0000000E 00                              	DB	0
    69 0000000F 00                              	DB	0
    70 00000010 51                              	DB	81
    71 00000011 57                              	DB	87
    72 00000012 45                              	DB	69
    73 00000013 52                              	DB	82
    74 00000014 54                              	DB	84
    75 00000015 59                              	DB	89
    76 00000016 55                              	DB	85
    77 00000017 49                              	DB	73
    78 00000018 4F                              	DB	79
    79 00000019 50                              	DB	80
    80 0000001A 40                              	DB	64
    81 0000001B 5B                              	DB	91
    82 0000001C 00                              	DB	0
    83 0000001D 00                              	DB	0
    84 0000001E 41                              	DB	65
    85 0000001F 53                              	DB	83
    86 00000020 44                              	DB	68
    87 00000021 46                              	DB	70
    88 00000022 47                              	DB	71
    89 00000023 48                              	DB	72
    90 00000024 4A                              	DB	74
    91 00000025 4B                              	DB	75
    92 00000026 4C                              	DB	76
    93 00000027 3B                              	DB	59
    94 00000028 3A                              	DB	58
    95 00000029 00                              	DB	0
    96 0000002A 00                              	DB	0
    97 0000002B 5D                              	DB	93
    98 0000002C 5A                              	DB	90
    99 0000002D 58                              	DB	88
   100 0000002E 43                              	DB	67
   101 0000002F 56                              	DB	86
   102 00000030 42                              	DB	66
   103 00000031 4E                              	DB	78
   104 00000032 4D                              	DB	77
   105 00000033 2C                              	DB	44
   106 00000034 2E                              	DB	46
   107 00000035 2F                              	DB	47
   108 00000036 00                              	DB	0
   109 00000037 2A                              	DB	42
   110 00000038 00                              	DB	0
   111 00000039 20                              	DB	32
   112 0000003A 00                              	DB	0
   113 0000003B 00                              	DB	0
   114 0000003C 00                              	DB	0
   115 0000003D 00                              	DB	0
   116 0000003E 00                              	DB	0
   117 0000003F 00                              	DB	0
   118 00000040 00                              	DB	0
   119 00000041 00                              	DB	0
   120 00000042 00                              	DB	0
   121 00000043 00                              	DB	0
   122 00000044 00                              	DB	0
   123 00000045 00                              	DB	0
   124 00000046 00                              	DB	0
   125 00000047 37                              	DB	55
   126 00000048 38                              	DB	56
   127 00000049 39                              	DB	57
   128 0000004A 2D                              	DB	45
   129 0000004B 34                              	DB	52
   130 0000004C 35                              	DB	53
   131 0000004D 36                              	DB	54
   132 0000004E 2B                              	DB	43
   133 0000004F 31                              	DB	49
   134 00000050 32                              	DB	50
   135 00000051 33                              	DB	51
   136 00000052 30                              	DB	48
   137 00000053 2E                              	DB	46
   138 00000054                                 _keytable0.1:
   139 00000054 00                              	DB	0
   140 00000055 00                              	DB	0
   141 00000056 31                              	DB	49
   142 00000057 32                              	DB	50
   143 00000058 33                              	DB	51
   144 00000059 34                              	DB	52
   145 0000005A 35                              	DB	53
   146 0000005B 36                              	DB	54
   147 0000005C 37                              	DB	55
   148 0000005D 38                              	DB	56
   149 0000005E 39                              	DB	57
   150 0000005F 30                              	DB	48
   151 00000060 2D                              	DB	45
   152 00000061 5E                              	DB	94
   153 00000062 00                              	DB	0
   154 00000063 00                              	DB	0
   155 00000064 51                              	DB	81
   156 00000065 57                              	DB	87
   157 00000066 45                              	DB	69
   158 00000067 52                              	DB	82
   159 00000068 54                              	DB	84
   160 00000069 59                              	DB	89
   161 0000006A 55                              	DB	85
   162 0000006B 49                              	DB	73
   163 0000006C 4F                              	DB	79
   164 0000006D 50                              	DB	80
   165 0000006E 40                              	DB	64
   166 0000006F 5B                              	DB	91
   167 00000070 00                              	DB	0
   168 00000071 00                              	DB	0
   169 00000072 41                              	DB	65
   170 00000073 53                              	DB	83
   171 00000074 44                              	DB	68
   172 00000075 46                              	DB	70
   173 00000076 47                              	DB	71
   174 00000077 48                              	DB	72
   175 00000078 4A                              	DB	74
   176 00000079 4B                              	DB	75
   177 0000007A 4C                              	DB	76
   178 0000007B 3B                              	DB	59
   179 0000007C 3A                              	DB	58
   180 0000007D 00                              	DB	0
   181 0000007E 00                              	DB	0
   182 0000007F 5D                              	DB	93
   183 00000080 5A                              	DB	90
   184 00000081 58                              	DB	88
   185 00000082 43                              	DB	67
   186 00000083 56                              	DB	86
   187 00000084 42                              	DB	66
   188 00000085 4E                              	DB	78
   189 00000086 4D                              	DB	77
   190 00000087 2C                              	DB	44
   191 00000088 2E                              	DB	46
   192 00000089 2F                              	DB	47
   193 0000008A 00                              	DB	0
   194 0000008B 2A                              	DB	42
   195 0000008C 00                              	DB	0
   196 0000008D 20                              	DB	32
   197 0000008E 00                              	DB	0
   198 0000008F 00                              	DB	0
   199 00000090 00                              	DB	0
   200 00000091 00                              	DB	0
   201 00000092 00                              	DB	0
   202 00000093 00                              	DB	0
   203 00000094 00                              	DB	0
   204 00000095 00                              	DB	0
   205 00000096 00                              	DB	0
   206 00000097 00                              	DB	0
   207 00000098 00                              	DB	0
   208 00000099 00                              	DB	0
   209 0000009A 00                              	DB	0
   210 0000009B 37                              	DB	55
   211 0000009C 38                              	DB	56
   212 0000009D 39                              	DB	57
   213 0000009E 2D                              	DB	45
   214 0000009F 34                              	DB	52
   215 000000A0 35                              	DB	53
   216 000000A1 36                              	DB	54
   217 000000A2 2B                              	DB	43
   218 000000A3 31                              	DB	49
   219 000000A4 32                              	DB	50
   220 000000A5 33                              	DB	51
   221 000000A6 30                              	DB	48
   222 000000A7 2E                              	DB	46
   223 000000A8 00                              	DB	0
   224 000000A9 00                              	DB	0
   225 000000AA 00                              	DB	0
   226 000000AB 00                              	DB	0
   227 000000AC 00                              	DB	0
   228 000000AD 00                              	DB	0
   229 000000AE 00                              	DB	0
   230 000000AF 00                              	DB	0
   231 000000B0 00                              	DB	0
   232 000000B1 00                              	DB	0
   233 000000B2 00                              	DB	0
   234 000000B3 00                              	DB	0
   235 000000B4 00                              	DB	0
   236 000000B5 00                              	DB	0
   237 000000B6 00                              	DB	0
   238 000000B7 00                              	DB	0
   239 000000B8 00                              	DB	0
   240 000000B9 00                              	DB	0
   241 000000BA 00                              	DB	0
   242 000000BB 00                              	DB	0
   243 000000BC 00                              	DB	0
   244 000000BD 00                              	DB	0
   245 000000BE 00                              	DB	0
   246 000000BF 00                              	DB	0
   247 000000C0 00                              	DB	0
   248 000000C1 00                              	DB	0
   249 000000C2 00                              	DB	0
   250 000000C3 00                              	DB	0
   251 000000C4 00                              	DB	0
   252 000000C5 00                              	DB	0
   253 000000C6 00                              	DB	0
   254 000000C7 5C                              	DB	92
   255 000000C8 00                              	DB	0
   256 000000C9 00                              	DB	0
   257 000000CA 00                              	DB	0
   258 000000CB 00                              	DB	0
   259 000000CC 00                              	DB	0
   260 000000CD 00                              	DB	0
   261 000000CE 00                              	DB	0
   262 000000CF 00                              	DB	0
   263 000000D0 00                              	DB	0
   264 000000D1 5C                              	DB	92
   265 000000D2 00                              	DB	0
   266 000000D3 00                              	DB	0
   267 000000D4                                 _keytable1.2:
   268 000000D4 00                              	DB	0
   269 000000D5 00                              	DB	0
   270 000000D6 21                              	DB	33
   271 000000D7 22                              	DB	34
   272 000000D8 23                              	DB	35
   273 000000D9 24                              	DB	36
   274 000000DA 25                              	DB	37
   275 000000DB 26                              	DB	38
   276 000000DC 27                              	DB	39
   277 000000DD 28                              	DB	40
   278 000000DE 29                              	DB	41
   279 000000DF 7E                              	DB	126
   280 000000E0 3D                              	DB	61
   281 000000E1 7E                              	DB	126
   282 000000E2 00                              	DB	0
   283 000000E3 00                              	DB	0
   284 000000E4 51                              	DB	81
   285 000000E5 57                              	DB	87
   286 000000E6 45                              	DB	69
   287 000000E7 52                              	DB	82
   288 000000E8 54                              	DB	84
   289 000000E9 59                              	DB	89
   290 000000EA 55                              	DB	85
   291 000000EB 49                              	DB	73
   292 000000EC 4F                              	DB	79
   293 000000ED 50                              	DB	80
   294 000000EE 60                              	DB	96
   295 000000EF 7B                              	DB	123
   296 000000F0 00                              	DB	0
   297 000000F1 00                              	DB	0
   298 000000F2 41                              	DB	65
   299 000000F3 53                              	DB	83
   300 000000F4 44                              	DB	68
   301 000000F5 46                              	DB	70
   302 000000F6 47                              	DB	71
   303 000000F7 48                              	DB	72
   304 000000F8 4A                              	DB	74
   305 000000F9 4B                              	DB	75
   306 000000FA 4C                              	DB	76
   307 000000FB 2B                              	DB	43
   308 000000FC 2A                              	DB	42
   309 000000FD 00                              	DB	0
   310 000000FE 00                              	DB	0
   311 000000FF 7D                              	DB	125
   312 00000100 5A                              	DB	90
   313 00000101 58                              	DB	88
   314 00000102 43                              	DB	67
   315 00000103 56                              	DB	86
   316 00000104 42                              	DB	66
   317 00000105 4E                              	DB	78
   318 00000106 4D                              	DB	77
   319 00000107 3C                              	DB	60
   320 00000108 3E                              	DB	62
   321 00000109 3F                              	DB	63
   322 0000010A 00                              	DB	0
   323 0000010B 2A                              	DB	42
   324 0000010C 00                              	DB	0
   325 0000010D 20                              	DB	32
   326 0000010E 00                              	DB	0
   327 0000010F 00                              	DB	0
   328 00000110 00                              	DB	0
   329 00000111 00                              	DB	0
   330 00000112 00                              	DB	0
   331 00000113 00                              	DB	0
   332 00000114 00                              	DB	0
   333 00000115 00                              	DB	0
   334 00000116 00                              	DB	0
   335 00000117 00                              	DB	0
   336 00000118 00                              	DB	0
   337 00000119 00                              	DB	0
   338 0000011A 00                              	DB	0
   339 0000011B 37                              	DB	55
   340 0000011C 38                              	DB	56
   341 0000011D 39                              	DB	57
   342 0000011E 2D                              	DB	45
   343 0000011F 34                              	DB	52
   344 00000120 35                              	DB	53
   345 00000121 36                              	DB	54
   346 00000122 2B                              	DB	43
   347 00000123 31                              	DB	49
   348 00000124 32                              	DB	50
   349 00000125 33                              	DB	51
   350 00000126 30                              	DB	48
   351 00000127 2E                              	DB	46
   352 00000128 00                              	DB	0
   353 00000129 00                              	DB	0
   354 0000012A 00                              	DB	0
   355 0000012B 00                              	DB	0
   356 0000012C 00                              	DB	0
   357 0000012D 00                              	DB	0
   358 0000012E 00                              	DB	0
   359 0000012F 00                              	DB	0
   360 00000130 00                              	DB	0
   361 00000131 00                              	DB	0
   362 00000132 00                              	DB	0
   363 00000133 00                              	DB	0
   364 00000134 00                              	DB	0
   365 00000135 00                              	DB	0
   366 00000136 00                              	DB	0
   367 00000137 00                              	DB	0
   368 00000138 00                              	DB	0
   369 00000139 00                              	DB	0
   370 0000013A 00                              	DB	0
   371 0000013B 00                              	DB	0
   372 0000013C 00                              	DB	0
   373 0000013D 00                              	DB	0
   374 0000013E 00                              	DB	0
   375 0000013F 00                              	DB	0
   376 00000140 00                              	DB	0
   377 00000141 00                              	DB	0
   378 00000142 00                              	DB	0
   379 00000143 00                              	DB	0
   380 00000144 00                              	DB	0
   381 00000145 00                              	DB	0
   382 00000146 00                              	DB	0
   383 00000147 5F                              	DB	95
   384 00000148 00                              	DB	0
   385 00000149 00                              	DB	0
   386 0000014A 00                              	DB	0
   387 0000014B 00                              	DB	0
   388 0000014C 00                              	DB	0
   389 0000014D 00                              	DB	0
   390 0000014E 00                              	DB	0
   391 0000014F 00                              	DB	0
   392 00000150 00                              	DB	0
   393 00000151 7C                              	DB	124
   394 00000152 00                              	DB	0
   395 00000153 00                              	DB	0
   396 00000154                                 LC1:
   397 00000154 0A 42 72 65 61 6B 28 6B 65 79   	DB	0x0A,"Break(key) :",0x0A,0x00
       0000015E 29 20 3A 0A 00 
   398 00000163                                 LC0:
   399 00000163 20 00                           	DB	" ",0x00
   400                                          [SECTION .text]
   401 00000000                                 	GLOBAL	_HariMain
   402 00000000                                 _HariMain:
   403 00000000 55                              	PUSH	EBP
   404 00000001 89 E5                           	MOV	EBP,ESP
   405 00000003 57                              	PUSH	EDI
   406 00000004 56                              	PUSH	ESI
   407 00000005 53                              	PUSH	EBX
   408 00000006 8D 75 D4                        	LEA	ESI,DWORD [-44+EBP]
   409 00000009 81 EC 00000398                  	SUB	ESP,920
   410 0000000F 8D 5D B4                        	LEA	EBX,DWORD [-76+EBP]
   411 00000012 E8 [00000000]                   	CALL	_init_gdtidt
   412 00000017 E8 [00000000]                   	CALL	_init_pic
   413 0000001C E8 [00000000]                   	CALL	_io_sti
   414 00000021 E8 [00000000]                   	CALL	_init_pit
   415 00000026 E8 [00000000]                   	CALL	_Allow_InterruptMask
   416 0000002B 68 BFFFFFFF                     	PUSH	-1073741825
   417 00000030 68 00400000                     	PUSH	4194304
   418 00000035 C7 05 [0000016C] 003C0000       	MOV	DWORD [_memman],3932160
   419 0000003F E8 [00000000]                   	CALL	_memtest
   420 00000044 FF 35 [0000016C]                	PUSH	DWORD [_memman]
   421 0000004A 89 85 FFFFFC8C                  	MOV	DWORD [-884+EBP],EAX
   422 00000050 A3 [00000170]                   	MOV	DWORD [_mem_total],EAX
   423 00000055 E8 [00000000]                   	CALL	_memman_init
   424 0000005A 68 0009E000                     	PUSH	647168
   425 0000005F 68 00001000                     	PUSH	4096
   426 00000064 FF 35 [0000016C]                	PUSH	DWORD [_memman]
   427 0000006A E8 [00000000]                   	CALL	_memman_free
   428 0000006F 8B 85 FFFFFC8C                  	MOV	EAX,DWORD [-884+EBP]
   429 00000075 2D 00400000                     	SUB	EAX,4194304
   430 0000007A 50                              	PUSH	EAX
   431 0000007B 68 00400000                     	PUSH	4194304
   432 00000080 FF 35 [0000016C]                	PUSH	DWORD [_memman]
   433 00000086 E8 [00000000]                   	CALL	_memman_free
   434 0000008B 83 C4 24                        	ADD	ESP,36
   435 0000008E 68 00000E08                     	PUSH	3592
   436 00000093 FF 35 [0000016C]                	PUSH	DWORD [_memman]
   437 00000099 E8 [00000000]                   	CALL	_memman_alloc_4K
   438 0000009E 89 85 FFFFFC90                  	MOV	DWORD [-880+EBP],EAX
   439 000000A4 E8 [00000000]                   	CALL	_init_palette
   440 000000A9 0F BF 05 00000FF6               	MOVSX	EAX,WORD [4086]
   441 000000B0 50                              	PUSH	EAX
   442 000000B1 0F BF 05 00000FF4               	MOVSX	EAX,WORD [4084]
   443 000000B8 50                              	PUSH	EAX
   444 000000B9 FF 35 00000FF8                  	PUSH	DWORD [4088]
   445 000000BF FF 35 [0000016C]                	PUSH	DWORD [_memman]
   446 000000C5 FF B5 FFFFFC90                  	PUSH	DWORD [-880+EBP]
   447 000000CB E8 [00000000]                   	CALL	_sheet
   448 000000D0 8B 95 FFFFFC90                  	MOV	EDX,DWORD [-880+EBP]
   449 000000D6 8B 02                           	MOV	EAX,DWORD [EDX]
   450 000000D8 A3 00000FE4                     	MOV	DWORD [4068],EAX
   451 000000DD 8D 85 FFFFFDB4                  	LEA	EAX,DWORD [-588+EBP]
   452 000000E3 6A 00                           	PUSH	0
   453 000000E5 50                              	PUSH	EAX
   454 000000E6 68 00000080                     	PUSH	128
   455 000000EB 56                              	PUSH	ESI
   456 000000EC E8 [00000000]                   	CALL	_fifo32_init
   457 000000F1 8D 85 FFFFFD34                  	LEA	EAX,DWORD [-716+EBP]
   458 000000F7 83 C4 2C                        	ADD	ESP,44
   459 000000FA 6A 00                           	PUSH	0
   460 000000FC 50                              	PUSH	EAX
   461 000000FD 6A 20                           	PUSH	32
   462 000000FF 53                              	PUSH	EBX
   463 00000100 E8 [00000000]                   	CALL	_fifo32_init
   464 00000105 68 00000100                     	PUSH	256
   465 0000010A 56                              	PUSH	ESI
   466 0000010B E8 [00000000]                   	CALL	_init_keyboard
   467 00000110 8D 85 FFFFFD24                  	LEA	EAX,DWORD [-732+EBP]
   468 00000116 50                              	PUSH	EAX
   469 00000117 68 00000200                     	PUSH	512
   470 0000011C 56                              	PUSH	ESI
   471 0000011D E8 [00000000]                   	CALL	_enable_mouse
   472 00000122 83 C4 24                        	ADD	ESP,36
   473 00000125 8B BD FFFFFC90                  	MOV	EDI,DWORD [-880+EBP]
   474 0000012B C7 85 FFFFFC7C 00000000         	MOV	DWORD [-900+EBP],0
   475 00000135 8B 0F                           	MOV	ECX,DWORD [EDI]
   476 00000137 BF 00000002                     	MOV	EDI,2
   477 0000013C C7 85 FFFFFC78 00000000         	MOV	DWORD [-904+EBP],0
   478 00000146 8B 51 08                        	MOV	EDX,DWORD [8+ECX]
   479 00000149 83 EA 10                        	SUB	EDX,16
   480 0000014C 89 D0                           	MOV	EAX,EDX
   481 0000014E 99                              	CDQ
   482 0000014F F7 FF                           	IDIV	EDI
   483 00000151 8B 51 0C                        	MOV	EDX,DWORD [12+ECX]
   484 00000154 89 85 FFFFFC88                  	MOV	DWORD [-888+EBP],EAX
   485 0000015A 83 EA 2C                        	SUB	EDX,44
   486 0000015D 89 D0                           	MOV	EAX,EDX
   487 0000015F 99                              	CDQ
   488 00000160 F7 FF                           	IDIV	EDI
   489 00000162 8B 95 FFFFFC90                  	MOV	EDX,DWORD [-880+EBP]
   490 00000168 89 85 FFFFFC84                  	MOV	DWORD [-892+EBP],EAX
   491 0000016E 83 C2 20                        	ADD	EDX,32
   492 00000171 89 95 FFFFFC80                  	MOV	DWORD [-896+EBP],EDX
   493 00000177 A0 00000FF1                     	MOV	AL,BYTE [4081]
   494 0000017C 68 000000ED                     	PUSH	237
   495 00000181 C0 F8 04                        	SAR	AL,4
   496 00000184 53                              	PUSH	EBX
   497 00000185 89 C1                           	MOV	ECX,EAX
   498 00000187 83 E1 07                        	AND	ECX,7
   499 0000018A 89 8D FFFFFC74                  	MOV	DWORD [-908+EBP],ECX
   500 00000190 C7 85 FFFFFC70 FFFFFFFF         	MOV	DWORD [-912+EBP],-1
   501 0000019A C7 85 FFFFFC6C 00000000         	MOV	DWORD [-916+EBP],0
   502 000001A4 E8 [00000000]                   	CALL	_fifo32_put
   503 000001A9 FF B5 FFFFFC74                  	PUSH	DWORD [-908+EBP]
   504 000001AF 53                              	PUSH	EBX
   505 000001B0 8D 9D FFFFFCB4                  	LEA	EBX,DWORD [-844+EBP]
   506 000001B6 E8 [00000000]                   	CALL	_fifo32_put
   507 000001BB FF 35 [0000016C]                	PUSH	DWORD [_memman]
   508 000001C1 E8 [00000000]                   	CALL	_Command_int
   509 000001C6 E8 [00000000]                   	CALL	_timer_alloc
   510 000001CB 6A 01                           	PUSH	1
   511 000001CD 56                              	PUSH	ESI
   512 000001CE 50                              	PUSH	EAX
   513 000001CF 89 85 FFFFFC68                  	MOV	DWORD [-920+EBP],EAX
   514 000001D5 E8 [00000000]                   	CALL	_timer_init
   515 000001DA 83 C4 20                        	ADD	ESP,32
   516 000001DD 6A 32                           	PUSH	50
   517 000001DF FF B5 FFFFFC68                  	PUSH	DWORD [-920+EBP]
   518 000001E5 E8 [00000000]                   	CALL	_timer_settime
   519 000001EA FF 35 [0000016C]                	PUSH	DWORD [_memman]
   520 000001F0 E8 [00000000]                   	CALL	_task_init
   521 000001F5 6A 00                           	PUSH	0
   522 000001F7 6A 01                           	PUSH	1
   523 000001F9 50                              	PUSH	EAX
   524 000001FA 89 85 FFFFFC64                  	MOV	DWORD [-924+EBP],EAX
   525 00000200 89 45 EC                        	MOV	DWORD [-20+EBP],EAX
   526 00000203 E8 [00000000]                   	CALL	_task_run
   527 00000208 6A 38                           	PUSH	56
   528 0000020A 6A 08                           	PUSH	8
   529 0000020C 53                              	PUSH	EBX
   530 0000020D FF 35 [0000016C]                	PUSH	DWORD [_memman]
   531 00000213 FF B5 FFFFFC90                  	PUSH	DWORD [-880+EBP]
   532 00000219 C7 85 FFFFFCCC 00000034         	MOV	DWORD [-820+EBP],52
   533 00000223 C7 85 FFFFFCC8 00000090         	MOV	DWORD [-824+EBP],144
   534 0000022D C7 85 FFFFFCB4 646E6977         	MOV	DWORD [-844+EBP],1684957559
   535 00000237 C7 85 FFFFFCB8 0031776F         	MOV	DWORD [-840+EBP],3241839
   536 00000241 E8 [00000000]                   	CALL	_Make_Win1
   537 00000246 83 C4 2C                        	ADD	ESP,44
   538 00000249 6A 00                           	PUSH	0
   539 0000024B 53                              	PUSH	EBX
   540 0000024C E8 [00000000]                   	CALL	_Sel_window
   541 00000251 6A 64                           	PUSH	100
   542 00000253 6A 64                           	PUSH	100
   543 00000255 8D 85 FFFFFC94                  	LEA	EAX,DWORD [-876+EBP]
   544 0000025B 50                              	PUSH	EAX
   545 0000025C FF 35 [0000016C]                	PUSH	DWORD [_memman]
   546 00000262 FF B5 FFFFFC90                  	PUSH	DWORD [-880+EBP]
   547 00000268 C7 85 FFFFFCAC 00000200         	MOV	DWORD [-852+EBP],512
   548 00000272 C7 85 FFFFFCA8 00000264         	MOV	DWORD [-856+EBP],612
   549 0000027C C7 85 FFFFFC94 736E6F43         	MOV	DWORD [-876+EBP],1936617283
   550 00000286 C7 85 FFFFFC98 00656C6F         	MOV	DWORD [-872+EBP],6646895
   551 00000290 E8 [00000000]                   	CALL	_Make_Console
   552 00000295 E8 [00000000]                   	CALL	_task_alloc
   553 0000029A 68 00010000                     	PUSH	65536
   554 0000029F FF 35 [0000016C]                	PUSH	DWORD [_memman]
   555 000002A5 89 C7                           	MOV	EDI,EAX
   556 000002A7 E8 [00000000]                   	CALL	_memman_alloc_4K
   557 000002AC 05 0000FFF4                     	ADD	EAX,65524
   558 000002B1 8B 95 FFFFFCB0                  	MOV	EDX,DWORD [-848+EBP]
   559 000002B7 89 47 48                        	MOV	DWORD [72+EDI],EAX
   560 000002BA 83 C4 24                        	ADD	ESP,36
   561 000002BD C7 47 30 [00000000]             	MOV	DWORD [48+EDI],_console_task
   562 000002C4 C7 47 58 00000008               	MOV	DWORD [88+EDI],8
   563 000002CB C7 47 5C 00000010               	MOV	DWORD [92+EDI],16
   564 000002D2 C7 47 60 00000008               	MOV	DWORD [96+EDI],8
   565 000002D9 C7 47 64 00000008               	MOV	DWORD [100+EDI],8
   566 000002E0 C7 47 68 00000008               	MOV	DWORD [104+EDI],8
   567 000002E7 C7 47 6C 00000008               	MOV	DWORD [108+EDI],8
   568 000002EE 89 50 04                        	MOV	DWORD [4+EAX],EDX
   569 000002F1 8B 95 FFFFFC8C                  	MOV	EDX,DWORD [-884+EBP]
   570 000002F7 8B 47 48                        	MOV	EAX,DWORD [72+EDI]
   571 000002FA 89 50 08                        	MOV	DWORD [8+EAX],EDX
   572 000002FD 6A 02                           	PUSH	2
   573 000002FF 6A 02                           	PUSH	2
   574 00000301 57                              	PUSH	EDI
   575 00000302 E8 [00000000]                   	CALL	_task_run
   576 00000307 FF B5 FFFFFC90                  	PUSH	DWORD [-880+EBP]
   577 0000030D C7 85 FFFFFC60 00000010         	MOV	DWORD [-928+EBP],16
   578 00000317 C7 85 FFFFFC5C 00000000         	MOV	DWORD [-932+EBP],0
   579 00000321 E8 [00000000]                   	CALL	_updown_mouse
   580 00000326                                 L62:
   581 00000326 83 C4 10                        	ADD	ESP,16
   582 00000329                                 L59:
   583 00000329 8D 5D B4                        	LEA	EBX,DWORD [-76+EBP]
   584 0000032C 53                              	PUSH	EBX
   585 0000032D E8 [00000000]                   	CALL	_fifo32_status
   586 00000332 5A                              	POP	EDX
   587 00000333 85 C0                           	TEST	EAX,EAX
   588 00000335 7E 0D                           	JLE	L5
   589 00000337 83 BD FFFFFC70 00               	CMP	DWORD [-912+EBP],0
   590 0000033E 0F 88 000006C0                  	JS	L64
   591 00000344                                 L5:
   592 00000344 8D 5D D4                        	LEA	EBX,DWORD [-44+EBP]
   593 00000347 E8 [00000000]                   	CALL	_io_cli
   594 0000034C 53                              	PUSH	EBX
   595 0000034D E8 [00000000]                   	CALL	_fifo32_status
   596 00000352 5E                              	POP	ESI
   597 00000353 85 C0                           	TEST	EAX,EAX
   598 00000355 0F 84 00000693                  	JE	L65
   599 0000035B 53                              	PUSH	EBX
   600 0000035C E8 [00000000]                   	CALL	_fifo32_get
   601 00000361 89 C6                           	MOV	ESI,EAX
   602 00000363 E8 [00000000]                   	CALL	_io_sti
   603 00000368 59                              	POP	ECX
   604 00000369 8D 86 FFFFFF00                  	LEA	EAX,DWORD [-256+ESI]
   605 0000036F 3D 000000FF                     	CMP	EAX,255
   606 00000374 0F 86 000001D8                  	JBE	L66
   607 0000037A 8D 86 FFFFFE00                  	LEA	EAX,DWORD [-512+ESI]
   608 00000380 3D 000000FF                     	CMP	EAX,255
   609 00000385 0F 86 000000D5                  	JBE	L67
   610 0000038B 83 FE 01                        	CMP	ESI,1
   611 0000038E 7F 99                           	JG	L59
   612 00000390 85 F6                           	TEST	ESI,ESI
   613 00000392 0F 84 0000009B                  	JE	L54
   614 00000398 6A 00                           	PUSH	0
   615 0000039A 53                              	PUSH	EBX
   616 0000039B FF B5 FFFFFC68                  	PUSH	DWORD [-920+EBP]
   617 000003A1 E8 [00000000]                   	CALL	_timer_init
   618 000003A6 83 C4 0C                        	ADD	ESP,12
   619 000003A9 83 BD FFFFFC5C 00               	CMP	DWORD [-932+EBP],0
   620 000003B0 78 0A                           	JS	L56
   621 000003B2 C7 85 FFFFFC5C 00000007         	MOV	DWORD [-932+EBP],7
   622 000003BC                                 L56:
   623 000003BC 6A 32                           	PUSH	50
   624 000003BE FF B5 FFFFFC68                  	PUSH	DWORD [-920+EBP]
   625 000003C4 E8 [00000000]                   	CALL	_timer_settime
   626 000003C9 58                              	POP	EAX
   627 000003CA 5A                              	POP	EDX
   628 000003CB 83 BD FFFFFC5C 00               	CMP	DWORD [-932+EBP],0
   629 000003D2 0F 88 FFFFFF51                  	JS	L59
   630 000003D8 8B 85 FFFFFC60                  	MOV	EAX,DWORD [-928+EBP]
   631 000003DE 6A 2D                           	PUSH	45
   632 000003E0 83 C0 07                        	ADD	EAX,7
   633 000003E3 50                              	PUSH	EAX
   634 000003E4 6A 1F                           	PUSH	31
   635 000003E6 FF B5 FFFFFC60                  	PUSH	DWORD [-928+EBP]
   636 000003EC 0F B6 85 FFFFFC5C               	MOVZX	EAX,BYTE [-932+EBP]
   637 000003F3 50                              	PUSH	EAX
   638 000003F4 8B 85 FFFFFCD0                  	MOV	EAX,DWORD [-816+EBP]
   639 000003FA FF 70 08                        	PUSH	DWORD [8+EAX]
   640 000003FD FF 30                           	PUSH	DWORD [EAX]
   641 000003FF E8 [00000000]                   	CALL	_boxfill8
   642 00000404 8B 85 FFFFFC60                  	MOV	EAX,DWORD [-928+EBP]
   643 0000040A 6A 2E                           	PUSH	46
   644 0000040C 83 C0 08                        	ADD	EAX,8
   645 0000040F 50                              	PUSH	EAX
   646 00000410 8B 85 FFFFFC90                  	MOV	EAX,DWORD [-880+EBP]
   647 00000416 6A 1F                           	PUSH	31
   648 00000418 FF B5 FFFFFC60                  	PUSH	DWORD [-928+EBP]
   649 0000041E FF B5 FFFFFCD0                  	PUSH	DWORD [-816+EBP]
   650 00000424 FF 30                           	PUSH	DWORD [EAX]
   651 00000426 E8 [00000000]                   	CALL	_sheet_refresh
   652 0000042B 83 C4 34                        	ADD	ESP,52
   653 0000042E E9 FFFFFEF6                     	JMP	L59
   654 00000433                                 L54:
   655 00000433 6A 01                           	PUSH	1
   656 00000435 53                              	PUSH	EBX
   657 00000436 FF B5 FFFFFC68                  	PUSH	DWORD [-920+EBP]
   658 0000043C E8 [00000000]                   	CALL	_timer_init
   659 00000441 83 C4 0C                        	ADD	ESP,12
   660 00000444 83 BD FFFFFC5C 00               	CMP	DWORD [-932+EBP],0
   661 0000044B 0F 88 FFFFFF6B                  	JS	L56
   662 00000451 C7 85 FFFFFC5C 00000000         	MOV	DWORD [-932+EBP],0
   663 0000045B E9 FFFFFF5C                     	JMP	L56
   664 00000460                                 L67:
   665 00000460 89 F2                           	MOV	EDX,ESI
   666 00000462 0F B6 C2                        	MOVZX	EAX,DL
   667 00000465 50                              	PUSH	EAX
   668 00000466 8D 85 FFFFFD24                  	LEA	EAX,DWORD [-732+EBP]
   669 0000046C 50                              	PUSH	EAX
   670 0000046D E8 [00000000]                   	CALL	_mouse_decode
   671 00000472 59                              	POP	ECX
   672 00000473 5B                              	POP	EBX
   673 00000474 85 C0                           	TEST	EAX,EAX
   674 00000476 0F 84 FFFFFEAD                  	JE	L59
   675 0000047C 8B 8D FFFFFD2C                  	MOV	ECX,DWORD [-724+EBP]
   676 00000482 8B 85 FFFFFD28                  	MOV	EAX,DWORD [-728+EBP]
   677 00000488 01 8D FFFFFC84                  	ADD	DWORD [-892+EBP],ECX
   678 0000048E 01 85 FFFFFC88                  	ADD	DWORD [-888+EBP],EAX
   679 00000494 0F 88 000000A9                  	JS	L68
   680 0000049A                                 L47:
   681 0000049A 83 BD FFFFFC84 00               	CMP	DWORD [-892+EBP],0
   682 000004A1 0F 88 0000008D                  	JS	L69
   683 000004A7                                 L48:
   684 000004A7 8B 8D FFFFFC90                  	MOV	ECX,DWORD [-880+EBP]
   685 000004AD 8B 11                           	MOV	EDX,DWORD [ECX]
   686 000004AF 8B 42 08                        	MOV	EAX,DWORD [8+EDX]
   687 000004B2 48                              	DEC	EAX
   688 000004B3 39 85 FFFFFC88                  	CMP	DWORD [-888+EBP],EAX
   689 000004B9 7E 06                           	JLE	L49
   690 000004BB 89 85 FFFFFC88                  	MOV	DWORD [-888+EBP],EAX
   691 000004C1                                 L49:
   692 000004C1 8B 42 0C                        	MOV	EAX,DWORD [12+EDX]
   693 000004C4 48                              	DEC	EAX
   694 000004C5 39 85 FFFFFC84                  	CMP	DWORD [-892+EBP],EAX
   695 000004CB 7E 06                           	JLE	L50
   696 000004CD 89 85 FFFFFC84                  	MOV	DWORD [-892+EBP],EAX
   697 000004D3                                 L50:
   698 000004D3 FF B5 FFFFFC84                  	PUSH	DWORD [-892+EBP]
   699 000004D9 8B 85 FFFFFC80                  	MOV	EAX,DWORD [-896+EBP]
   700 000004DF 8B 95 FFFFFC90                  	MOV	EDX,DWORD [-880+EBP]
   701 000004E5 FF B5 FFFFFC88                  	PUSH	DWORD [-888+EBP]
   702 000004EB FF 70 14                        	PUSH	DWORD [20+EAX]
   703 000004EE FF 32                           	PUSH	DWORD [EDX]
   704 000004F0 E8 [00000000]                   	CALL	_sheet_slide
   705 000004F5 83 C4 10                        	ADD	ESP,16
   706 000004F8 F7 85 FFFFFD30 00000001         	TEST	DWORD [-720+EBP],1
   707 00000502 0F 84 FFFFFE21                  	JE	L59
   708 00000508 8B 85 FFFFFC84                  	MOV	EAX,DWORD [-892+EBP]
   709 0000050E 8B 8D FFFFFC90                  	MOV	ECX,DWORD [-880+EBP]
   710 00000514 83 E8 08                        	SUB	EAX,8
   711 00000517 50                              	PUSH	EAX
   712 00000518 8B 85 FFFFFC88                  	MOV	EAX,DWORD [-888+EBP]
   713 0000051E 83 E8 50                        	SUB	EAX,80
   714 00000521 50                              	PUSH	EAX
   715 00000522 FF B5 FFFFFCD0                  	PUSH	DWORD [-816+EBP]
   716 00000528 FF 31                           	PUSH	DWORD [ECX]
   717 0000052A E8 [00000000]                   	CALL	_sheet_slide
   718 0000052F E9 FFFFFDF2                     	JMP	L62
   719 00000534                                 L69:
   720 00000534 C7 85 FFFFFC84 00000000         	MOV	DWORD [-892+EBP],0
   721 0000053E E9 FFFFFF64                     	JMP	L48
   722 00000543                                 L68:
   723 00000543 C7 85 FFFFFC88 00000000         	MOV	DWORD [-888+EBP],0
   724 0000054D E9 FFFFFF48                     	JMP	L47
   725 00000552                                 L66:
   726 00000552 81 FE 0000017F                  	CMP	ESI,383
   727 00000558 0F 8F 00000484                  	JG	L9
   728 0000055E 83 BD FFFFFC78 00               	CMP	DWORD [-904+EBP],0
   729 00000565 0F 85 0000046C                  	JNE	L10
   730 0000056B 8A 86 [FFFFFF54]                	MOV	AL,BYTE [_keytable0.1-256+ESI]
   731 00000571                                 L63:
   732 00000571 88 85 FFFFFCF4                  	MOV	BYTE [-780+EBP],AL
   733 00000577                                 L12:
   734 00000577 8A 95 FFFFFCF4                  	MOV	DL,BYTE [-780+EBP]
   735 0000057D 8D 42 BF                        	LEA	EAX,DWORD [-65+EDX]
   736 00000580 3C 19                           	CMP	AL,25
   737 00000582 77 1D                           	JA	L13
   738 00000584 F7 85 FFFFFC74 00000004         	TEST	DWORD [-908+EBP],4
   739 0000058E 0F 85 00000434                  	JNE	L61
   740 00000594 83 BD FFFFFC78 00               	CMP	DWORD [-904+EBP],0
   741 0000059B 0F 84 00000419                  	JE	L15
   742 000005A1                                 L13:
   743 000005A1 8A 85 FFFFFCF4                  	MOV	AL,BYTE [-780+EBP]
   744 000005A7 84 C0                           	TEST	AL,AL
   745 000005A9 74 4F                           	JE	L17
   746 000005AB 83 BD FFFFFC7C 00               	CMP	DWORD [-900+EBP],0
   747 000005B2 0F 85 000003EA                  	JNE	L18
   748 000005B8 83 BD FFFFFC60 7F               	CMP	DWORD [-928+EBP],127
   749 000005BF 7F 39                           	JG	L17
   750 000005C1 6A 01                           	PUSH	1
   751 000005C3 8D 85 FFFFFCF4                  	LEA	EAX,DWORD [-780+EBP]
   752 000005C9 50                              	PUSH	EAX
   753 000005CA 8B 8D FFFFFC90                  	MOV	ECX,DWORD [-880+EBP]
   754 000005D0 6A 00                           	PUSH	0
   755 000005D2 6A 07                           	PUSH	7
   756 000005D4 6A 1F                           	PUSH	31
   757 000005D6 FF B5 FFFFFC60                  	PUSH	DWORD [-928+EBP]
   758 000005DC FF B5 FFFFFCD0                  	PUSH	DWORD [-816+EBP]
   759 000005E2 C6 85 FFFFFCF5 00               	MOV	BYTE [-779+EBP],0
   760 000005E9 FF 31                           	PUSH	DWORD [ECX]
   761 000005EB E8 [00000000]                   	CALL	_putfonts8_asc_sht
   762 000005F0 83 C4 20                        	ADD	ESP,32
   763 000005F3 83 85 FFFFFC60 08               	ADD	DWORD [-928+EBP],8
   764 000005FA                                 L17:
   765 000005FA 81 FE 0000010E                  	CMP	ESI,270
   766 00000600 0F 84 0000033D                  	JE	L70
   767 00000606                                 L21:
   768 00000606 81 FE 0000011C                  	CMP	ESI,284
   769 0000060C 0F 84 00000310                  	JE	L71
   770 00000612                                 L25:
   771 00000612 81 FE 0000010F                  	CMP	ESI,271
   772 00000618 0F 84 0000024C                  	JE	L72
   773 0000061E                                 L27:
   774 0000061E 81 FE 0000012A                  	CMP	ESI,298
   775 00000624 0F 84 00000234                  	JE	L73
   776 0000062A                                 L30:
   777 0000062A 81 FE 00000136                  	CMP	ESI,310
   778 00000630 0F 84 0000021C                  	JE	L74
   779 00000636                                 L31:
   780 00000636 81 FE 000001AA                  	CMP	ESI,426
   781 0000063C 0F 84 00000204                  	JE	L75
   782 00000642                                 L32:
   783 00000642 81 FE 000001B6                  	CMP	ESI,438
   784 00000648 0F 84 000001EC                  	JE	L76
   785 0000064E                                 L33:
   786 0000064E 81 FE 0000011D                  	CMP	ESI,285
   787 00000654 0F 84 000001D4                  	JE	L77
   788 0000065A                                 L34:
   789 0000065A 81 FE 0000019D                  	CMP	ESI,413
   790 00000660 0F 84 000001BC                  	JE	L78
   791 00000666                                 L35:
   792 00000666 81 FE 0000013A                  	CMP	ESI,314
   793 0000066C 0F 84 00000187                  	JE	L79
   794 00000672                                 L36:
   795 00000672 81 FE 00000145                  	CMP	ESI,325
   796 00000678 0F 84 00000152                  	JE	L80
   797 0000067E                                 L37:
   798 0000067E 81 FE 00000146                  	CMP	ESI,326
   799 00000684 0F 84 0000011D                  	JE	L81
   800 0000068A                                 L38:
   801 0000068A 81 FE 0000012E                  	CMP	ESI,302
   802 00000690 0F 84 000000CC                  	JE	L82
   803 00000696                                 L39:
   804 00000696 81 FE 00000157                  	CMP	ESI,343
   805 0000069C 0F 84 00000096                  	JE	L83
   806 000006A2                                 L40:
   807 000006A2 81 FE 000001FA                  	CMP	ESI,506
   808 000006A8 74 7F                           	JE	L84
   809 000006AA                                 L41:
   810 000006AA 81 FE 000001FE                  	CMP	ESI,510
   811 000006B0 74 61                           	JE	L85
   812 000006B2                                 L42:
   813 000006B2 83 BD FFFFFC5C 00               	CMP	DWORD [-932+EBP],0
   814 000006B9 78 29                           	JS	L43
   815 000006BB 8B 85 FFFFFC60                  	MOV	EAX,DWORD [-928+EBP]
   816 000006C1 6A 2D                           	PUSH	45
   817 000006C3 83 C0 07                        	ADD	EAX,7
   818 000006C6 50                              	PUSH	EAX
   819 000006C7 8B 85 FFFFFCD0                  	MOV	EAX,DWORD [-816+EBP]
   820 000006CD 6A 1F                           	PUSH	31
   821 000006CF FF B5 FFFFFC60                  	PUSH	DWORD [-928+EBP]
   822 000006D5 6A 0F                           	PUSH	15
   823 000006D7 FF 70 08                        	PUSH	DWORD [8+EAX]
   824 000006DA FF 30                           	PUSH	DWORD [EAX]
   825 000006DC E8 [00000000]                   	CALL	_boxfill8
   826 000006E1 83 C4 1C                        	ADD	ESP,28
   827 000006E4                                 L43:
   828 000006E4 8B 85 FFFFFC60                  	MOV	EAX,DWORD [-928+EBP]
   829 000006EA 6A 2E                           	PUSH	46
   830 000006EC 83 C0 08                        	ADD	EAX,8
   831 000006EF 8B 8D FFFFFC90                  	MOV	ECX,DWORD [-880+EBP]
   832 000006F5 50                              	PUSH	EAX
   833 000006F6 6A 1F                           	PUSH	31
   834 000006F8 FF B5 FFFFFC60                  	PUSH	DWORD [-928+EBP]
   835 000006FE FF B5 FFFFFCD0                  	PUSH	DWORD [-816+EBP]
   836 00000704 FF 31                           	PUSH	DWORD [ECX]
   837 00000706 E8 [00000000]                   	CALL	_sheet_refresh
   838 0000070B 83 C4 18                        	ADD	ESP,24
   839 0000070E E9 FFFFFC16                     	JMP	L59
   840 00000713                                 L85:
   841 00000713 E8 [00000000]                   	CALL	_wait_KBC_sendready
   842 00000718 FF B5 FFFFFC70                  	PUSH	DWORD [-912+EBP]
   843 0000071E 6A 60                           	PUSH	96
   844 00000720 E8 [00000000]                   	CALL	_io_out8
   845 00000725 5E                              	POP	ESI
   846 00000726 58                              	POP	EAX
   847 00000727 EB 89                           	JMP	L42
   848 00000729                                 L84:
   849 00000729 C7 85 FFFFFC70 FFFFFFFF         	MOV	DWORD [-912+EBP],-1
   850 00000733 E9 FFFFFF72                     	JMP	L41
   851 00000738                                 L83:
   852 00000738 8B 95 FFFFFC90                  	MOV	EDX,DWORD [-880+EBP]
   853 0000073E 8B 02                           	MOV	EAX,DWORD [EDX]
   854 00000740 8B 40 10                        	MOV	EAX,DWORD [16+EAX]
   855 00000743 83 F8 02                        	CMP	EAX,2
   856 00000746 0F 8E FFFFFF56                  	JLE	L40
   857 0000074C 48                              	DEC	EAX
   858 0000074D 50                              	PUSH	EAX
   859 0000074E 8B 02                           	MOV	EAX,DWORD [EDX]
   860 00000750 FF 70 18                        	PUSH	DWORD [24+EAX]
   861 00000753 FF 32                           	PUSH	DWORD [EDX]
   862 00000755 E8 [00000000]                   	CALL	_sheet_updown
   863 0000075A 83 C4 0C                        	ADD	ESP,12
   864 0000075D E9 FFFFFF40                     	JMP	L40
   865 00000762                                 L82:
   866 00000762 83 BD FFFFFC6C 00               	CMP	DWORD [-916+EBP],0
   867 00000769 0F 84 FFFFFF27                  	JE	L39
   868 0000076F 83 7F 18 00                     	CMP	DWORD [24+EDI],0
   869 00000773 0F 84 FFFFFF1D                  	JE	L39
   870 00000779 68 [00000154]                   	PUSH	LC1
   871 0000077E FF 35 00000FEC                  	PUSH	DWORD [4076]
   872 00000784 E8 [00000000]                   	CALL	_cons_putstr
   873 00000789 E8 [00000000]                   	CALL	_io_cli
   874 0000078E 8D 47 14                        	LEA	EAX,DWORD [20+EDI]
   875 00000791 89 47 38                        	MOV	DWORD [56+EDI],EAX
   876 00000794 C7 47 30 [00000000]             	MOV	DWORD [48+EDI],_asm_end_app
   877 0000079B E8 [00000000]                   	CALL	_io_sti
   878 000007A0 58                              	POP	EAX
   879 000007A1 5A                              	POP	EDX
   880 000007A2 E9 FFFFFEEF                     	JMP	L39
   881 000007A7                                 L81:
   882 000007A7 68 000000ED                     	PUSH	237
   883 000007AC 8D 5D B4                        	LEA	EBX,DWORD [-76+EBP]
   884 000007AF 53                              	PUSH	EBX
   885 000007B0 83 B5 FFFFFC74 01               	XOR	DWORD [-908+EBP],1
   886 000007B7 E8 [00000000]                   	CALL	_fifo32_put
   887 000007BC FF B5 FFFFFC74                  	PUSH	DWORD [-908+EBP]
   888 000007C2 53                              	PUSH	EBX
   889 000007C3 E8 [00000000]                   	CALL	_fifo32_put
   890 000007C8 83 C4 10                        	ADD	ESP,16
   891 000007CB E9 FFFFFEBA                     	JMP	L38
   892 000007D0                                 L80:
   893 000007D0 68 000000ED                     	PUSH	237
   894 000007D5 8D 5D B4                        	LEA	EBX,DWORD [-76+EBP]
   895 000007D8 53                              	PUSH	EBX
   896 000007D9 83 B5 FFFFFC74 02               	XOR	DWORD [-908+EBP],2
   897 000007E0 E8 [00000000]                   	CALL	_fifo32_put
   898 000007E5 FF B5 FFFFFC74                  	PUSH	DWORD [-908+EBP]
   899 000007EB 53                              	PUSH	EBX
   900 000007EC E8 [00000000]                   	CALL	_fifo32_put
   901 000007F1 83 C4 10                        	ADD	ESP,16
   902 000007F4 E9 FFFFFE85                     	JMP	L37
   903 000007F9                                 L79:
   904 000007F9 68 000000ED                     	PUSH	237
   905 000007FE 8D 5D B4                        	LEA	EBX,DWORD [-76+EBP]
   906 00000801 53                              	PUSH	EBX
   907 00000802 83 B5 FFFFFC74 04               	XOR	DWORD [-908+EBP],4
   908 00000809 E8 [00000000]                   	CALL	_fifo32_put
   909 0000080E FF B5 FFFFFC74                  	PUSH	DWORD [-908+EBP]
   910 00000814 53                              	PUSH	EBX
   911 00000815 E8 [00000000]                   	CALL	_fifo32_put
   912 0000081A 83 C4 10                        	ADD	ESP,16
   913 0000081D E9 FFFFFE50                     	JMP	L36
   914 00000822                                 L78:
   915 00000822 83 A5 FFFFFC6C FE               	AND	DWORD [-916+EBP],-2
   916 00000829 E9 FFFFFE38                     	JMP	L35
   917 0000082E                                 L77:
   918 0000082E 83 8D FFFFFC6C 01               	OR	DWORD [-916+EBP],1
   919 00000835 E9 FFFFFE20                     	JMP	L34
   920 0000083A                                 L76:
   921 0000083A 83 A5 FFFFFC78 FD               	AND	DWORD [-904+EBP],-3
   922 00000841 E9 FFFFFE08                     	JMP	L33
   923 00000846                                 L75:
   924 00000846 83 A5 FFFFFC78 FE               	AND	DWORD [-904+EBP],-2
   925 0000084D E9 FFFFFDF0                     	JMP	L32
   926 00000852                                 L74:
   927 00000852 83 8D FFFFFC78 02               	OR	DWORD [-904+EBP],2
   928 00000859 E9 FFFFFDD8                     	JMP	L31
   929 0000085E                                 L73:
   930 0000085E 83 8D FFFFFC78 01               	OR	DWORD [-904+EBP],1
   931 00000865 E9 FFFFFDC0                     	JMP	L30
   932 0000086A                                 L72:
   933 0000086A 83 BD FFFFFC7C 00               	CMP	DWORD [-900+EBP],0
   934 00000871 75 6D                           	JNE	L28
   935 00000873 6A 00                           	PUSH	0
   936 00000875 8D 85 FFFFFC94                  	LEA	EAX,DWORD [-876+EBP]
   937 0000087B 50                              	PUSH	EAX
   938 0000087C C7 85 FFFFFC7C 00000001         	MOV	DWORD [-900+EBP],1
   939 00000886 E8 [00000000]                   	CALL	_Sel_Console
   940 0000088B 8D 85 FFFFFCB4                  	LEA	EAX,DWORD [-844+EBP]
   941 00000891 6A 01                           	PUSH	1
   942 00000893 50                              	PUSH	EAX
   943 00000894 E8 [00000000]                   	CALL	_Sel_window
   944 00000899 8B 85 FFFFFC60                  	MOV	EAX,DWORD [-928+EBP]
   945 0000089F 6A 2E                           	PUSH	46
   946 000008A1 83 C0 07                        	ADD	EAX,7
   947 000008A4 50                              	PUSH	EAX
   948 000008A5 8B 85 FFFFFCD0                  	MOV	EAX,DWORD [-816+EBP]
   949 000008AB 6A 1F                           	PUSH	31
   950 000008AD FF B5 FFFFFC60                  	PUSH	DWORD [-928+EBP]
   951 000008B3 6A 00                           	PUSH	0
   952 000008B5 FF B5 FFFFFCC8                  	PUSH	DWORD [-824+EBP]
   953 000008BB FF 30                           	PUSH	DWORD [EAX]
   954 000008BD C7 85 FFFFFC5C FFFFFFFF         	MOV	DWORD [-932+EBP],-1
   955 000008C7 E8 [00000000]                   	CALL	_boxfill8
   956 000008CC 83 C4 2C                        	ADD	ESP,44
   957 000008CF 6A 02                           	PUSH	2
   958 000008D1 FF 77 78                        	PUSH	DWORD [120+EDI]
   959 000008D4 E8 [00000000]                   	CALL	_fifo32_put
   960 000008D9 59                              	POP	ECX
   961 000008DA 5B                              	POP	EBX
   962 000008DB E9 FFFFFD3E                     	JMP	L27
   963 000008E0                                 L28:
   964 000008E0 6A 01                           	PUSH	1
   965 000008E2 8D 85 FFFFFC94                  	LEA	EAX,DWORD [-876+EBP]
   966 000008E8 50                              	PUSH	EAX
   967 000008E9 C7 85 FFFFFC7C 00000000         	MOV	DWORD [-900+EBP],0
   968 000008F3 E8 [00000000]                   	CALL	_Sel_Console
   969 000008F8 8D 85 FFFFFCB4                  	LEA	EAX,DWORD [-844+EBP]
   970 000008FE 6A 00                           	PUSH	0
   971 00000900 50                              	PUSH	EAX
   972 00000901 E8 [00000000]                   	CALL	_Sel_window
   973 00000906 6A 03                           	PUSH	3
   974 00000908 FF 77 78                        	PUSH	DWORD [120+EDI]
   975 0000090B C7 85 FFFFFC5C 00000007         	MOV	DWORD [-932+EBP],7
   976 00000915 E8 [00000000]                   	CALL	_fifo32_put
   977 0000091A 83 C4 18                        	ADD	ESP,24
   978 0000091D E9 FFFFFCFC                     	JMP	L27
   979 00000922                                 L71:
   980 00000922 83 BD FFFFFC7C 00               	CMP	DWORD [-900+EBP],0
   981 00000929 0F 84 FFFFFCE3                  	JE	L25
   982 0000092F 68 0000010A                     	PUSH	266
   983 00000934 FF 77 78                        	PUSH	DWORD [120+EDI]
   984 00000937 E8 [00000000]                   	CALL	_fifo32_put
   985 0000093C 58                              	POP	EAX
   986 0000093D 5A                              	POP	EDX
   987 0000093E E9 FFFFFCCF                     	JMP	L25
   988 00000943                                 L70:
   989 00000943 83 BD FFFFFC7C 00               	CMP	DWORD [-900+EBP],0
   990 0000094A 75 42                           	JNE	L22
   991 0000094C 83 BD FFFFFC60 10               	CMP	DWORD [-928+EBP],16
   992 00000953 0F 8E FFFFFCAD                  	JLE	L21
   993 00000959 6A 01                           	PUSH	1
   994 0000095B 8B 85 FFFFFC90                  	MOV	EAX,DWORD [-880+EBP]
   995 00000961 68 [00000163]                   	PUSH	LC0
   996 00000966 6A 00                           	PUSH	0
   997 00000968 6A 07                           	PUSH	7
   998 0000096A 6A 1F                           	PUSH	31
   999 0000096C FF B5 FFFFFC60                  	PUSH	DWORD [-928+EBP]
  1000 00000972 FF B5 FFFFFCD0                  	PUSH	DWORD [-816+EBP]
  1001 00000978 FF 30                           	PUSH	DWORD [EAX]
  1002 0000097A E8 [00000000]                   	CALL	_putfonts8_asc_sht
  1003 0000097F 83 C4 20                        	ADD	ESP,32
  1004 00000982 83 AD FFFFFC60 08               	SUB	DWORD [-928+EBP],8
  1005 00000989 E9 FFFFFC78                     	JMP	L21
  1006 0000098E                                 L22:
  1007 0000098E 68 00000108                     	PUSH	264
  1008 00000993 FF 77 78                        	PUSH	DWORD [120+EDI]
  1009 00000996 E8 [00000000]                   	CALL	_fifo32_put
  1010 0000099B 59                              	POP	ECX
  1011 0000099C 5B                              	POP	EBX
  1012 0000099D E9 FFFFFC64                     	JMP	L21
  1013 000009A2                                 L18:
  1014 000009A2 0F BE C0                        	MOVSX	EAX,AL
  1015 000009A5 05 00000100                     	ADD	EAX,256
  1016 000009AA 50                              	PUSH	EAX
  1017 000009AB FF 77 78                        	PUSH	DWORD [120+EDI]
  1018 000009AE E8 [00000000]                   	CALL	_fifo32_put
  1019 000009B3 58                              	POP	EAX
  1020 000009B4 5A                              	POP	EDX
  1021 000009B5 E9 FFFFFC40                     	JMP	L17
  1022 000009BA                                 L15:
  1023 000009BA 8D 42 20                        	LEA	EAX,DWORD [32+EDX]
  1024 000009BD 88 85 FFFFFCF4                  	MOV	BYTE [-780+EBP],AL
  1025 000009C3 E9 FFFFFBD9                     	JMP	L13
  1026 000009C8                                 L61:
  1027 000009C8 83 BD FFFFFC78 00               	CMP	DWORD [-904+EBP],0
  1028 000009CF 0F 84 FFFFFBCC                  	JE	L13
  1029 000009D5 EB E3                           	JMP	L15
  1030 000009D7                                 L10:
  1031 000009D7 8A 86 [FFFFFFD4]                	MOV	AL,BYTE [_keytable1.2-256+ESI]
  1032 000009DD E9 FFFFFB8F                     	JMP	L63
  1033 000009E2                                 L9:
  1034 000009E2 C6 85 FFFFFCF4 00               	MOV	BYTE [-780+EBP],0
  1035 000009E9 E9 FFFFFB89                     	JMP	L12
  1036 000009EE                                 L65:
  1037 000009EE FF B5 FFFFFC64                  	PUSH	DWORD [-924+EBP]
  1038 000009F4 E8 [00000000]                   	CALL	_task_sleep
  1039 000009F9 E8 [00000000]                   	CALL	_io_sti
  1040 000009FE 5B                              	POP	EBX
  1041 000009FF E9 FFFFF925                     	JMP	L59
  1042 00000A04                                 L64:
  1043 00000A04 53                              	PUSH	EBX
  1044 00000A05 E8 [00000000]                   	CALL	_fifo32_get
  1045 00000A0A 89 85 FFFFFC70                  	MOV	DWORD [-912+EBP],EAX
  1046 00000A10 E8 [00000000]                   	CALL	_wait_KBC_sendready
  1047 00000A15 FF B5 FFFFFC70                  	PUSH	DWORD [-912+EBP]
  1048 00000A1B 6A 60                           	PUSH	96
  1049 00000A1D E8 [00000000]                   	CALL	_io_out8
  1050 00000A22 83 C4 0C                        	ADD	ESP,12
  1051 00000A25 E9 FFFFF91A                     	JMP	L5
  1052 00000A2A                                 L60:
  1053                                          [SECTION .data]
  1054 00000165                                 LC2:
  1055 00000165 25 31 31 64 00                  	DB	"%11d",0x00
  1056                                          [SECTION .text]
  1057 00000A2A                                 	GLOBAL	_task_b_main
  1058 00000A2A                                 _task_b_main:
  1059 00000A2A 55                              	PUSH	EBP
  1060 00000A2B 89 E5                           	MOV	EBP,ESP
  1061 00000A2D 57                              	PUSH	EDI
  1062 00000A2E 56                              	PUSH	ESI
  1063 00000A2F 31 FF                           	XOR	EDI,EDI
  1064 00000A31 53                              	PUSH	EBX
  1065 00000A32 8D 85 FFFFFDD4                  	LEA	EAX,DWORD [-556+EBP]
  1066 00000A38 81 EC 00000230                  	SUB	ESP,560
  1067 00000A3E 8D 5D D4                        	LEA	EBX,DWORD [-44+EBP]
  1068 00000A41 6A 00                           	PUSH	0
  1069 00000A43 50                              	PUSH	EAX
  1070 00000A44 68 00000080                     	PUSH	128
  1071 00000A49 53                              	PUSH	EBX
  1072 00000A4A E8 [00000000]                   	CALL	_fifo32_init
  1073 00000A4F E8 [00000000]                   	CALL	_timer_alloc
  1074 00000A54 6A 64                           	PUSH	100
  1075 00000A56 53                              	PUSH	EBX
  1076 00000A57 89 C6                           	MOV	ESI,EAX
  1077 00000A59 50                              	PUSH	EAX
  1078 00000A5A E8 [00000000]                   	CALL	_timer_init
  1079 00000A5F 6A 64                           	PUSH	100
  1080 00000A61 56                              	PUSH	ESI
  1081 00000A62 E8 [00000000]                   	CALL	_timer_settime
  1082 00000A67 83 C4 24                        	ADD	ESP,36
  1083 00000A6A                                 L87:
  1084 00000A6A 8D 5D D4                        	LEA	EBX,DWORD [-44+EBP]
  1085 00000A6D E8 [00000000]                   	CALL	_io_cli
  1086 00000A72 53                              	PUSH	EBX
  1087 00000A73 47                              	INC	EDI
  1088 00000A74 E8 [00000000]                   	CALL	_fifo32_status
  1089 00000A79 5A                              	POP	EDX
  1090 00000A7A 85 C0                           	TEST	EAX,EAX
  1091 00000A7C 74 4A                           	JE	L93
  1092 00000A7E 53                              	PUSH	EBX
  1093 00000A7F E8 [00000000]                   	CALL	_fifo32_get
  1094 00000A84 89 C3                           	MOV	EBX,EAX
  1095 00000A86 E8 [00000000]                   	CALL	_io_sti
  1096 00000A8B 58                              	POP	EAX
  1097 00000A8C 83 FB 64                        	CMP	EBX,100
  1098 00000A8F 75 D9                           	JNE	L87
  1099 00000A91 57                              	PUSH	EDI
  1100 00000A92 8D 9D FFFFFDC4                  	LEA	EBX,DWORD [-572+EBP]
  1101 00000A98 68 [00000165]                   	PUSH	LC2
  1102 00000A9D 53                              	PUSH	EBX
  1103 00000A9E E8 [00000000]                   	CALL	_sprintf
  1104 00000AA3 6A 0B                           	PUSH	11
  1105 00000AA5 53                              	PUSH	EBX
  1106 00000AA6 6A 11                           	PUSH	17
  1107 00000AA8 6A 0E                           	PUSH	14
  1108 00000AAA 6A 1C                           	PUSH	28
  1109 00000AAC 6A 18                           	PUSH	24
  1110 00000AAE FF 75 08                        	PUSH	DWORD [8+EBP]
  1111 00000AB1 FF 75 0C                        	PUSH	DWORD [12+EBP]
  1112 00000AB4 E8 [00000000]                   	CALL	_putfonts8_asc_sht
  1113 00000AB9 83 C4 2C                        	ADD	ESP,44
  1114 00000ABC 6A 64                           	PUSH	100
  1115 00000ABE 56                              	PUSH	ESI
  1116 00000ABF E8 [00000000]                   	CALL	_timer_settime
  1117 00000AC4 59                              	POP	ECX
  1118 00000AC5 5B                              	POP	EBX
  1119 00000AC6 EB A2                           	JMP	L87
  1120 00000AC8                                 L93:
  1121 00000AC8 E8 [00000000]                   	CALL	_io_sti
  1122 00000ACD EB 9B                           	JMP	L87
  1123 00000ACF                                 	GLOBAL	_memman
  1124                                          [SECTION .data]
  1125 0000016A 00 00                           	ALIGNB	4
  1126 0000016C                                 _memman:
  1127 0000016C 00 00 00 00                     	RESB	4
  1128 00000170                                 	GLOBAL	_mem_total
  1129                                          [SECTION .data]
  1130 00000170                                 	ALIGNB	4
  1131 00000170                                 _mem_total:
  1132 00000170 00 00 00 00                     	RESB	4
