     1 00000000                                 [FORMAT "WCOFF"]
     2 00000000                                 [INSTRSET "i486p"]
     3 00000000                                 [OPTIMIZE 1]
     4 00000000                                 [OPTION 1]
     5 00000000                                 [BITS 32]
     6 00000000                                 	EXTERN	_init_gdtidt
     7 00000000                                 	EXTERN	_init_pic
     8 00000000                                 	EXTERN	_io_sti
     9 00000000                                 	EXTERN	_init_pit
    10 00000000                                 	EXTERN	_Allow_InterruptMask
    11 00000000                                 	EXTERN	_memtest
    12 00000000                                 	EXTERN	_memman_init
    13 00000000                                 	EXTERN	_memman_free
    14 00000000                                 	EXTERN	_memman_alloc_4K
    15 00000000                                 	EXTERN	_init_palette
    16 00000000                                 	EXTERN	_sheet
    17 00000000                                 	EXTERN	_fifo32_init
    18 00000000                                 	EXTERN	_init_keyboard
    19 00000000                                 	EXTERN	_enable_mouse
    20 00000000                                 	EXTERN	_fifo32_put
    21 00000000                                 	EXTERN	_Command_int
    22 00000000                                 	EXTERN	_timer_alloc
    23 00000000                                 	EXTERN	_timer_init
    24 00000000                                 	EXTERN	_timer_settime
    25 00000000                                 	EXTERN	_task_init
    26 00000000                                 	EXTERN	_task_run
    27 00000000                                 	EXTERN	_Make_Win1
    28 00000000                                 	EXTERN	_Sel_window
    29 00000000                                 	EXTERN	_Make_Console
    30 00000000                                 	EXTERN	_task_alloc
    31 00000000                                 	EXTERN	_console_task
    32 00000000                                 	EXTERN	_updown_mouse
    33 00000000                                 	EXTERN	_fifo32_status
    34 00000000                                 	EXTERN	_io_cli
    35 00000000                                 	EXTERN	_fifo32_get
    36 00000000                                 	EXTERN	_boxfill8
    37 00000000                                 	EXTERN	_sheet_refresh
    38 00000000                                 	EXTERN	_mouse_decode
    39 00000000                                 	EXTERN	_sheet_slide
    40 00000000                                 	EXTERN	_sheet_updown
    41 00000000                                 	EXTERN	_cons_putstr
    42 00000000                                 	EXTERN	_asm_end_app
    43 00000000                                 	EXTERN	_keytable0.1
    44 00000000                                 	EXTERN	_wait_KBC_sendready
    45 00000000                                 	EXTERN	_io_out8
    46 00000000                                 	EXTERN	_putfonts8_asc_sht
    47 00000000                                 	EXTERN	_keytable1.2
    48 00000000                                 	EXTERN	_task_sleep
    49 00000000                                 	EXTERN	_sprintf
    50 00000000                                 [FILE "bootpack.c"]
    51                                          [SECTION .data]
    52 00000000                                 _keytable.0:
    53 00000000 00                              	DB	0
    54 00000001 00                              	DB	0
    55 00000002 31                              	DB	49
    56 00000003 32                              	DB	50
    57 00000004 33                              	DB	51
    58 00000005 34                              	DB	52
    59 00000006 35                              	DB	53
    60 00000007 36                              	DB	54
    61 00000008 37                              	DB	55
    62 00000009 38                              	DB	56
    63 0000000A 39                              	DB	57
    64 0000000B 30                              	DB	48
    65 0000000C 2D                              	DB	45
    66 0000000D 5E                              	DB	94
    67 0000000E 00                              	DB	0
    68 0000000F 00                              	DB	0
    69 00000010 51                              	DB	81
    70 00000011 57                              	DB	87
    71 00000012 45                              	DB	69
    72 00000013 52                              	DB	82
    73 00000014 54                              	DB	84
    74 00000015 59                              	DB	89
    75 00000016 55                              	DB	85
    76 00000017 49                              	DB	73
    77 00000018 4F                              	DB	79
    78 00000019 50                              	DB	80
    79 0000001A 40                              	DB	64
    80 0000001B 5B                              	DB	91
    81 0000001C 00                              	DB	0
    82 0000001D 00                              	DB	0
    83 0000001E 41                              	DB	65
    84 0000001F 53                              	DB	83
    85 00000020 44                              	DB	68
    86 00000021 46                              	DB	70
    87 00000022 47                              	DB	71
    88 00000023 48                              	DB	72
    89 00000024 4A                              	DB	74
    90 00000025 4B                              	DB	75
    91 00000026 4C                              	DB	76
    92 00000027 3B                              	DB	59
    93 00000028 3A                              	DB	58
    94 00000029 00                              	DB	0
    95 0000002A 00                              	DB	0
    96 0000002B 5D                              	DB	93
    97 0000002C 5A                              	DB	90
    98 0000002D 58                              	DB	88
    99 0000002E 43                              	DB	67
   100 0000002F 56                              	DB	86
   101 00000030 42                              	DB	66
   102 00000031 4E                              	DB	78
   103 00000032 4D                              	DB	77
   104 00000033 2C                              	DB	44
   105 00000034 2E                              	DB	46
   106 00000035 2F                              	DB	47
   107 00000036 00                              	DB	0
   108 00000037 2A                              	DB	42
   109 00000038 00                              	DB	0
   110 00000039 20                              	DB	32
   111 0000003A 00                              	DB	0
   112 0000003B 00                              	DB	0
   113 0000003C 00                              	DB	0
   114 0000003D 00                              	DB	0
   115 0000003E 00                              	DB	0
   116 0000003F 00                              	DB	0
   117 00000040 00                              	DB	0
   118 00000041 00                              	DB	0
   119 00000042 00                              	DB	0
   120 00000043 00                              	DB	0
   121 00000044 00                              	DB	0
   122 00000045 00                              	DB	0
   123 00000046 00                              	DB	0
   124 00000047 37                              	DB	55
   125 00000048 38                              	DB	56
   126 00000049 39                              	DB	57
   127 0000004A 2D                              	DB	45
   128 0000004B 34                              	DB	52
   129 0000004C 35                              	DB	53
   130 0000004D 36                              	DB	54
   131 0000004E 2B                              	DB	43
   132 0000004F 31                              	DB	49
   133 00000050 32                              	DB	50
   134 00000051 33                              	DB	51
   135 00000052 30                              	DB	48
   136 00000053 2E                              	DB	46
   137 00000054                                 _keytable0.1:
   138 00000054 00                              	DB	0
   139 00000055 00                              	DB	0
   140 00000056 31                              	DB	49
   141 00000057 32                              	DB	50
   142 00000058 33                              	DB	51
   143 00000059 34                              	DB	52
   144 0000005A 35                              	DB	53
   145 0000005B 36                              	DB	54
   146 0000005C 37                              	DB	55
   147 0000005D 38                              	DB	56
   148 0000005E 39                              	DB	57
   149 0000005F 30                              	DB	48
   150 00000060 2D                              	DB	45
   151 00000061 5E                              	DB	94
   152 00000062 00                              	DB	0
   153 00000063 00                              	DB	0
   154 00000064 51                              	DB	81
   155 00000065 57                              	DB	87
   156 00000066 45                              	DB	69
   157 00000067 52                              	DB	82
   158 00000068 54                              	DB	84
   159 00000069 59                              	DB	89
   160 0000006A 55                              	DB	85
   161 0000006B 49                              	DB	73
   162 0000006C 4F                              	DB	79
   163 0000006D 50                              	DB	80
   164 0000006E 40                              	DB	64
   165 0000006F 5B                              	DB	91
   166 00000070 00                              	DB	0
   167 00000071 00                              	DB	0
   168 00000072 41                              	DB	65
   169 00000073 53                              	DB	83
   170 00000074 44                              	DB	68
   171 00000075 46                              	DB	70
   172 00000076 47                              	DB	71
   173 00000077 48                              	DB	72
   174 00000078 4A                              	DB	74
   175 00000079 4B                              	DB	75
   176 0000007A 4C                              	DB	76
   177 0000007B 3B                              	DB	59
   178 0000007C 3A                              	DB	58
   179 0000007D 00                              	DB	0
   180 0000007E 00                              	DB	0
   181 0000007F 5D                              	DB	93
   182 00000080 5A                              	DB	90
   183 00000081 58                              	DB	88
   184 00000082 43                              	DB	67
   185 00000083 56                              	DB	86
   186 00000084 42                              	DB	66
   187 00000085 4E                              	DB	78
   188 00000086 4D                              	DB	77
   189 00000087 2C                              	DB	44
   190 00000088 2E                              	DB	46
   191 00000089 2F                              	DB	47
   192 0000008A 00                              	DB	0
   193 0000008B 2A                              	DB	42
   194 0000008C 00                              	DB	0
   195 0000008D 20                              	DB	32
   196 0000008E 00                              	DB	0
   197 0000008F 00                              	DB	0
   198 00000090 00                              	DB	0
   199 00000091 00                              	DB	0
   200 00000092 00                              	DB	0
   201 00000093 00                              	DB	0
   202 00000094 00                              	DB	0
   203 00000095 00                              	DB	0
   204 00000096 00                              	DB	0
   205 00000097 00                              	DB	0
   206 00000098 00                              	DB	0
   207 00000099 00                              	DB	0
   208 0000009A 00                              	DB	0
   209 0000009B 37                              	DB	55
   210 0000009C 38                              	DB	56
   211 0000009D 39                              	DB	57
   212 0000009E 2D                              	DB	45
   213 0000009F 34                              	DB	52
   214 000000A0 35                              	DB	53
   215 000000A1 36                              	DB	54
   216 000000A2 2B                              	DB	43
   217 000000A3 31                              	DB	49
   218 000000A4 32                              	DB	50
   219 000000A5 33                              	DB	51
   220 000000A6 30                              	DB	48
   221 000000A7 2E                              	DB	46
   222 000000A8 00                              	DB	0
   223 000000A9 00                              	DB	0
   224 000000AA 00                              	DB	0
   225 000000AB 00                              	DB	0
   226 000000AC 00                              	DB	0
   227 000000AD 00                              	DB	0
   228 000000AE 00                              	DB	0
   229 000000AF 00                              	DB	0
   230 000000B0 00                              	DB	0
   231 000000B1 00                              	DB	0
   232 000000B2 00                              	DB	0
   233 000000B3 00                              	DB	0
   234 000000B4 00                              	DB	0
   235 000000B5 00                              	DB	0
   236 000000B6 00                              	DB	0
   237 000000B7 00                              	DB	0
   238 000000B8 00                              	DB	0
   239 000000B9 00                              	DB	0
   240 000000BA 00                              	DB	0
   241 000000BB 00                              	DB	0
   242 000000BC 00                              	DB	0
   243 000000BD 00                              	DB	0
   244 000000BE 00                              	DB	0
   245 000000BF 00                              	DB	0
   246 000000C0 00                              	DB	0
   247 000000C1 00                              	DB	0
   248 000000C2 00                              	DB	0
   249 000000C3 00                              	DB	0
   250 000000C4 00                              	DB	0
   251 000000C5 00                              	DB	0
   252 000000C6 00                              	DB	0
   253 000000C7 5C                              	DB	92
   254 000000C8 00                              	DB	0
   255 000000C9 00                              	DB	0
   256 000000CA 00                              	DB	0
   257 000000CB 00                              	DB	0
   258 000000CC 00                              	DB	0
   259 000000CD 00                              	DB	0
   260 000000CE 00                              	DB	0
   261 000000CF 00                              	DB	0
   262 000000D0 00                              	DB	0
   263 000000D1 5C                              	DB	92
   264 000000D2 00                              	DB	0
   265 000000D3 00                              	DB	0
   266 000000D4                                 _keytable1.2:
   267 000000D4 00                              	DB	0
   268 000000D5 00                              	DB	0
   269 000000D6 21                              	DB	33
   270 000000D7 22                              	DB	34
   271 000000D8 23                              	DB	35
   272 000000D9 24                              	DB	36
   273 000000DA 25                              	DB	37
   274 000000DB 26                              	DB	38
   275 000000DC 27                              	DB	39
   276 000000DD 28                              	DB	40
   277 000000DE 29                              	DB	41
   278 000000DF 7E                              	DB	126
   279 000000E0 3D                              	DB	61
   280 000000E1 7E                              	DB	126
   281 000000E2 00                              	DB	0
   282 000000E3 00                              	DB	0
   283 000000E4 51                              	DB	81
   284 000000E5 57                              	DB	87
   285 000000E6 45                              	DB	69
   286 000000E7 52                              	DB	82
   287 000000E8 54                              	DB	84
   288 000000E9 59                              	DB	89
   289 000000EA 55                              	DB	85
   290 000000EB 49                              	DB	73
   291 000000EC 4F                              	DB	79
   292 000000ED 50                              	DB	80
   293 000000EE 60                              	DB	96
   294 000000EF 7B                              	DB	123
   295 000000F0 00                              	DB	0
   296 000000F1 00                              	DB	0
   297 000000F2 41                              	DB	65
   298 000000F3 53                              	DB	83
   299 000000F4 44                              	DB	68
   300 000000F5 46                              	DB	70
   301 000000F6 47                              	DB	71
   302 000000F7 48                              	DB	72
   303 000000F8 4A                              	DB	74
   304 000000F9 4B                              	DB	75
   305 000000FA 4C                              	DB	76
   306 000000FB 2B                              	DB	43
   307 000000FC 2A                              	DB	42
   308 000000FD 00                              	DB	0
   309 000000FE 00                              	DB	0
   310 000000FF 7D                              	DB	125
   311 00000100 5A                              	DB	90
   312 00000101 58                              	DB	88
   313 00000102 43                              	DB	67
   314 00000103 56                              	DB	86
   315 00000104 42                              	DB	66
   316 00000105 4E                              	DB	78
   317 00000106 4D                              	DB	77
   318 00000107 3C                              	DB	60
   319 00000108 3E                              	DB	62
   320 00000109 3F                              	DB	63
   321 0000010A 00                              	DB	0
   322 0000010B 2A                              	DB	42
   323 0000010C 00                              	DB	0
   324 0000010D 20                              	DB	32
   325 0000010E 00                              	DB	0
   326 0000010F 00                              	DB	0
   327 00000110 00                              	DB	0
   328 00000111 00                              	DB	0
   329 00000112 00                              	DB	0
   330 00000113 00                              	DB	0
   331 00000114 00                              	DB	0
   332 00000115 00                              	DB	0
   333 00000116 00                              	DB	0
   334 00000117 00                              	DB	0
   335 00000118 00                              	DB	0
   336 00000119 00                              	DB	0
   337 0000011A 00                              	DB	0
   338 0000011B 37                              	DB	55
   339 0000011C 38                              	DB	56
   340 0000011D 39                              	DB	57
   341 0000011E 2D                              	DB	45
   342 0000011F 34                              	DB	52
   343 00000120 35                              	DB	53
   344 00000121 36                              	DB	54
   345 00000122 2B                              	DB	43
   346 00000123 31                              	DB	49
   347 00000124 32                              	DB	50
   348 00000125 33                              	DB	51
   349 00000126 30                              	DB	48
   350 00000127 2E                              	DB	46
   351 00000128 00                              	DB	0
   352 00000129 00                              	DB	0
   353 0000012A 00                              	DB	0
   354 0000012B 00                              	DB	0
   355 0000012C 00                              	DB	0
   356 0000012D 00                              	DB	0
   357 0000012E 00                              	DB	0
   358 0000012F 00                              	DB	0
   359 00000130 00                              	DB	0
   360 00000131 00                              	DB	0
   361 00000132 00                              	DB	0
   362 00000133 00                              	DB	0
   363 00000134 00                              	DB	0
   364 00000135 00                              	DB	0
   365 00000136 00                              	DB	0
   366 00000137 00                              	DB	0
   367 00000138 00                              	DB	0
   368 00000139 00                              	DB	0
   369 0000013A 00                              	DB	0
   370 0000013B 00                              	DB	0
   371 0000013C 00                              	DB	0
   372 0000013D 00                              	DB	0
   373 0000013E 00                              	DB	0
   374 0000013F 00                              	DB	0
   375 00000140 00                              	DB	0
   376 00000141 00                              	DB	0
   377 00000142 00                              	DB	0
   378 00000143 00                              	DB	0
   379 00000144 00                              	DB	0
   380 00000145 00                              	DB	0
   381 00000146 00                              	DB	0
   382 00000147 5F                              	DB	95
   383 00000148 00                              	DB	0
   384 00000149 00                              	DB	0
   385 0000014A 00                              	DB	0
   386 0000014B 00                              	DB	0
   387 0000014C 00                              	DB	0
   388 0000014D 00                              	DB	0
   389 0000014E 00                              	DB	0
   390 0000014F 00                              	DB	0
   391 00000150 00                              	DB	0
   392 00000151 7C                              	DB	124
   393 00000152 00                              	DB	0
   394 00000153 00                              	DB	0
   395 00000154                                 LC2:
   396 00000154 0A 42 72 65 61 6B 28 6D 6F 75   	DB	0x0A,"Break(mouse) :",0x0A,0x00
       0000015E 73 65 29 20 3A 0A 00 
   397 00000165                                 LC1:
   398 00000165 0A 42 72 65 61 6B 28 6B 65 79   	DB	0x0A,"Break(key) :",0x0A,0x00
       0000016F 29 20 3A 0A 00 
   399 00000174                                 LC0:
   400 00000174 20 00                           	DB	" ",0x00
   401                                          [SECTION .text]
   402 00000000                                 	GLOBAL	_HariMain
   403 00000000                                 _HariMain:
   404 00000000 55                              	PUSH	EBP
   405 00000001 89 E5                           	MOV	EBP,ESP
   406 00000003 57                              	PUSH	EDI
   407 00000004 56                              	PUSH	ESI
   408 00000005 53                              	PUSH	EBX
   409 00000006 8D 75 D4                        	LEA	ESI,DWORD [-44+EBP]
   410 00000009 81 EC 000003B4                  	SUB	ESP,948
   411 0000000F 8D 5D B4                        	LEA	EBX,DWORD [-76+EBP]
   412 00000012 E8 [00000000]                   	CALL	_init_gdtidt
   413 00000017 E8 [00000000]                   	CALL	_init_pic
   414 0000001C E8 [00000000]                   	CALL	_io_sti
   415 00000021 E8 [00000000]                   	CALL	_init_pit
   416 00000026 E8 [00000000]                   	CALL	_Allow_InterruptMask
   417 0000002B 68 BFFFFFFF                     	PUSH	-1073741825
   418 00000030 68 00400000                     	PUSH	4194304
   419 00000035 C7 05 [0000017C] 003C0000       	MOV	DWORD [_memman],3932160
   420 0000003F E8 [00000000]                   	CALL	_memtest
   421 00000044 FF 35 [0000017C]                	PUSH	DWORD [_memman]
   422 0000004A 89 C7                           	MOV	EDI,EAX
   423 0000004C A3 [00000180]                   	MOV	DWORD [_mem_total],EAX
   424 00000051 E8 [00000000]                   	CALL	_memman_init
   425 00000056 68 0009E000                     	PUSH	647168
   426 0000005B 68 00001000                     	PUSH	4096
   427 00000060 FF 35 [0000017C]                	PUSH	DWORD [_memman]
   428 00000066 E8 [00000000]                   	CALL	_memman_free
   429 0000006B 8D 87 FFC00000                  	LEA	EAX,DWORD [-4194304+EDI]
   430 00000071 50                              	PUSH	EAX
   431 00000072 68 00400000                     	PUSH	4194304
   432 00000077 FF 35 [0000017C]                	PUSH	DWORD [_memman]
   433 0000007D E8 [00000000]                   	CALL	_memman_free
   434 00000082 83 C4 24                        	ADD	ESP,36
   435 00000085 68 00000E08                     	PUSH	3592
   436 0000008A FF 35 [0000017C]                	PUSH	DWORD [_memman]
   437 00000090 E8 [00000000]                   	CALL	_memman_alloc_4K
   438 00000095 89 85 FFFFFC90                  	MOV	DWORD [-880+EBP],EAX
   439 0000009B E8 [00000000]                   	CALL	_init_palette
   440 000000A0 0F BF 05 00000FF6               	MOVSX	EAX,WORD [4086]
   441 000000A7 50                              	PUSH	EAX
   442 000000A8 0F BF 05 00000FF4               	MOVSX	EAX,WORD [4084]
   443 000000AF 50                              	PUSH	EAX
   444 000000B0 FF 35 00000FF8                  	PUSH	DWORD [4088]
   445 000000B6 FF 35 [0000017C]                	PUSH	DWORD [_memman]
   446 000000BC FF B5 FFFFFC90                  	PUSH	DWORD [-880+EBP]
   447 000000C2 E8 [00000000]                   	CALL	_sheet
   448 000000C7 8B 95 FFFFFC90                  	MOV	EDX,DWORD [-880+EBP]
   449 000000CD 8B 02                           	MOV	EAX,DWORD [EDX]
   450 000000CF A3 00000FE4                     	MOV	DWORD [4068],EAX
   451 000000D4 8D 85 FFFFFDB4                  	LEA	EAX,DWORD [-588+EBP]
   452 000000DA 6A 00                           	PUSH	0
   453 000000DC 50                              	PUSH	EAX
   454 000000DD 68 00000080                     	PUSH	128
   455 000000E2 56                              	PUSH	ESI
   456 000000E3 E8 [00000000]                   	CALL	_fifo32_init
   457 000000E8 8D 85 FFFFFD34                  	LEA	EAX,DWORD [-716+EBP]
   458 000000EE 83 C4 2C                        	ADD	ESP,44
   459 000000F1 6A 00                           	PUSH	0
   460 000000F3 50                              	PUSH	EAX
   461 000000F4 6A 20                           	PUSH	32
   462 000000F6 53                              	PUSH	EBX
   463 000000F7 E8 [00000000]                   	CALL	_fifo32_init
   464 000000FC 68 00000100                     	PUSH	256
   465 00000101 56                              	PUSH	ESI
   466 00000102 E8 [00000000]                   	CALL	_init_keyboard
   467 00000107 8D 85 FFFFFD24                  	LEA	EAX,DWORD [-732+EBP]
   468 0000010D 50                              	PUSH	EAX
   469 0000010E 68 00000200                     	PUSH	512
   470 00000113 56                              	PUSH	ESI
   471 00000114 E8 [00000000]                   	CALL	_enable_mouse
   472 00000119 83 C4 24                        	ADD	ESP,36
   473 0000011C 8B 8D FFFFFC90                  	MOV	ECX,DWORD [-880+EBP]
   474 00000122 C7 85 FFFFFC80 00000000         	MOV	DWORD [-896+EBP],0
   475 0000012C 8B 09                           	MOV	ECX,DWORD [ECX]
   476 0000012E 89 8D FFFFFC40                  	MOV	DWORD [-960+EBP],ECX
   477 00000134 8B 51 08                        	MOV	EDX,DWORD [8+ECX]
   478 00000137 B9 00000002                     	MOV	ECX,2
   479 0000013C 83 EA 10                        	SUB	EDX,16
   480 0000013F 89 D0                           	MOV	EAX,EDX
   481 00000141 99                              	CDQ
   482 00000142 F7 F9                           	IDIV	ECX
   483 00000144 89 85 FFFFFC8C                  	MOV	DWORD [-884+EBP],EAX
   484 0000014A 8B 85 FFFFFC40                  	MOV	EAX,DWORD [-960+EBP]
   485 00000150 8B 50 0C                        	MOV	EDX,DWORD [12+EAX]
   486 00000153 83 EA 2C                        	SUB	EDX,44
   487 00000156 89 D0                           	MOV	EAX,EDX
   488 00000158 99                              	CDQ
   489 00000159 F7 F9                           	IDIV	ECX
   490 0000015B 8B 95 FFFFFC90                  	MOV	EDX,DWORD [-880+EBP]
   491 00000161 89 85 FFFFFC88                  	MOV	DWORD [-888+EBP],EAX
   492 00000167 83 C2 20                        	ADD	EDX,32
   493 0000016A 89 95 FFFFFC84                  	MOV	DWORD [-892+EBP],EDX
   494 00000170 A0 00000FF1                     	MOV	AL,BYTE [4081]
   495 00000175 68 000000ED                     	PUSH	237
   496 0000017A C0 F8 04                        	SAR	AL,4
   497 0000017D 53                              	PUSH	EBX
   498 0000017E 89 C1                           	MOV	ECX,EAX
   499 00000180 83 E1 07                        	AND	ECX,7
   500 00000183 89 8D FFFFFC7C                  	MOV	DWORD [-900+EBP],ECX
   501 00000189 C7 85 FFFFFC78 FFFFFFFF         	MOV	DWORD [-904+EBP],-1
   502 00000193 C7 85 FFFFFC74 00000000         	MOV	DWORD [-908+EBP],0
   503 0000019D E8 [00000000]                   	CALL	_fifo32_put
   504 000001A2 FF B5 FFFFFC7C                  	PUSH	DWORD [-900+EBP]
   505 000001A8 53                              	PUSH	EBX
   506 000001A9 8D 9D FFFFFCB4                  	LEA	EBX,DWORD [-844+EBP]
   507 000001AF E8 [00000000]                   	CALL	_fifo32_put
   508 000001B4 8B 85 FFFFFC90                  	MOV	EAX,DWORD [-880+EBP]
   509 000001BA C7 85 FFFFFC70 FFFFFFFF         	MOV	DWORD [-912+EBP],-1
   510 000001C4 8B 00                           	MOV	EAX,DWORD [EAX]
   511 000001C6 FF 35 [0000017C]                	PUSH	DWORD [_memman]
   512 000001CC 89 85 FFFFFC5C                  	MOV	DWORD [-932+EBP],EAX
   513 000001D2 C7 85 FFFFFC6C FFFFFFFF         	MOV	DWORD [-916+EBP],-1
   514 000001DC C7 85 FFFFFC68 00000000         	MOV	DWORD [-920+EBP],0
   515 000001E6 E8 [00000000]                   	CALL	_Command_int
   516 000001EB E8 [00000000]                   	CALL	_timer_alloc
   517 000001F0 6A 01                           	PUSH	1
   518 000001F2 56                              	PUSH	ESI
   519 000001F3 50                              	PUSH	EAX
   520 000001F4 89 85 FFFFFC58                  	MOV	DWORD [-936+EBP],EAX
   521 000001FA E8 [00000000]                   	CALL	_timer_init
   522 000001FF 83 C4 20                        	ADD	ESP,32
   523 00000202 6A 32                           	PUSH	50
   524 00000204 FF B5 FFFFFC58                  	PUSH	DWORD [-936+EBP]
   525 0000020A E8 [00000000]                   	CALL	_timer_settime
   526 0000020F FF 35 [0000017C]                	PUSH	DWORD [_memman]
   527 00000215 E8 [00000000]                   	CALL	_task_init
   528 0000021A 6A 00                           	PUSH	0
   529 0000021C 6A 01                           	PUSH	1
   530 0000021E 50                              	PUSH	EAX
   531 0000021F 89 85 FFFFFC54                  	MOV	DWORD [-940+EBP],EAX
   532 00000225 89 45 EC                        	MOV	DWORD [-20+EBP],EAX
   533 00000228 E8 [00000000]                   	CALL	_task_run
   534 0000022D 6A 38                           	PUSH	56
   535 0000022F 6A 08                           	PUSH	8
   536 00000231 53                              	PUSH	EBX
   537 00000232 FF 35 [0000017C]                	PUSH	DWORD [_memman]
   538 00000238 FF B5 FFFFFC90                  	PUSH	DWORD [-880+EBP]
   539 0000023E C7 85 FFFFFCCC 00000034         	MOV	DWORD [-820+EBP],52
   540 00000248 C7 85 FFFFFCC8 00000090         	MOV	DWORD [-824+EBP],144
   541 00000252 C7 85 FFFFFCB4 646E6977         	MOV	DWORD [-844+EBP],1684957559
   542 0000025C C7 85 FFFFFCB8 0031776F         	MOV	DWORD [-840+EBP],3241839
   543 00000266 E8 [00000000]                   	CALL	_Make_Win1
   544 0000026B 83 C4 2C                        	ADD	ESP,44
   545 0000026E 6A 00                           	PUSH	0
   546 00000270 53                              	PUSH	EBX
   547 00000271 E8 [00000000]                   	CALL	_Sel_window
   548 00000276 6A 64                           	PUSH	100
   549 00000278 6A 64                           	PUSH	100
   550 0000027A 8D 85 FFFFFC94                  	LEA	EAX,DWORD [-876+EBP]
   551 00000280 50                              	PUSH	EAX
   552 00000281 8B 95 FFFFFCD0                  	MOV	EDX,DWORD [-816+EBP]
   553 00000287 FF 35 [0000017C]                	PUSH	DWORD [_memman]
   554 0000028D FF B5 FFFFFC90                  	PUSH	DWORD [-880+EBP]
   555 00000293 89 95 FFFFFC60                  	MOV	DWORD [-928+EBP],EDX
   556 00000299 C7 85 FFFFFCAC 00000200         	MOV	DWORD [-852+EBP],512
   557 000002A3 C7 85 FFFFFCA8 00000264         	MOV	DWORD [-856+EBP],612
   558 000002AD C7 85 FFFFFC94 736E6F43         	MOV	DWORD [-876+EBP],1936617283
   559 000002B7 C7 85 FFFFFC98 00656C6F         	MOV	DWORD [-872+EBP],6646895
   560 000002C1 E8 [00000000]                   	CALL	_Make_Console
   561 000002C6 E8 [00000000]                   	CALL	_task_alloc
   562 000002CB 68 00010000                     	PUSH	65536
   563 000002D0 FF 35 [0000017C]                	PUSH	DWORD [_memman]
   564 000002D6 89 85 FFFFFC50                  	MOV	DWORD [-944+EBP],EAX
   565 000002DC E8 [00000000]                   	CALL	_memman_alloc_4K
   566 000002E1 05 0000FFF4                     	ADD	EAX,65524
   567 000002E6 8B 8D FFFFFC50                  	MOV	ECX,DWORD [-944+EBP]
   568 000002EC 8B 95 FFFFFCB0                  	MOV	EDX,DWORD [-848+EBP]
   569 000002F2 83 C4 24                        	ADD	ESP,36
   570 000002F5 89 41 48                        	MOV	DWORD [72+ECX],EAX
   571 000002F8 C7 41 30 [00000000]             	MOV	DWORD [48+ECX],_console_task
   572 000002FF C7 41 58 00000008               	MOV	DWORD [88+ECX],8
   573 00000306 C7 41 5C 00000010               	MOV	DWORD [92+ECX],16
   574 0000030D C7 41 60 00000008               	MOV	DWORD [96+ECX],8
   575 00000314 C7 41 64 00000008               	MOV	DWORD [100+ECX],8
   576 0000031B C7 41 68 00000008               	MOV	DWORD [104+ECX],8
   577 00000322 C7 41 6C 00000008               	MOV	DWORD [108+ECX],8
   578 00000329 89 50 04                        	MOV	DWORD [4+EAX],EDX
   579 0000032C 8B 41 48                        	MOV	EAX,DWORD [72+ECX]
   580 0000032F 89 78 08                        	MOV	DWORD [8+EAX],EDI
   581 00000332 6A 02                           	PUSH	2
   582 00000334 6A 02                           	PUSH	2
   583 00000336 51                              	PUSH	ECX
   584 00000337 E8 [00000000]                   	CALL	_task_run
   585 0000033C 8B 8D FFFFFC50                  	MOV	ECX,DWORD [-944+EBP]
   586 00000342 8B 85 FFFFFCB0                  	MOV	EAX,DWORD [-848+EBP]
   587 00000348 8B 95 FFFFFC60                  	MOV	EDX,DWORD [-928+EBP]
   588 0000034E C7 85 FFFFFC4C 00000010         	MOV	DWORD [-948+EBP],16
   589 00000358 83 48 20 20                     	OR	DWORD [32+EAX],32
   590 0000035C 89 48 24                        	MOV	DWORD [36+EAX],ECX
   591 0000035F 89 95 FFFFFC64                  	MOV	DWORD [-924+EBP],EDX
   592 00000365 FF B5 FFFFFC90                  	PUSH	DWORD [-880+EBP]
   593 0000036B C7 85 FFFFFC48 00000000         	MOV	DWORD [-952+EBP],0
   594 00000375 E8 [00000000]                   	CALL	_updown_mouse
   595 0000037A                                 L76:
   596 0000037A 83 C4 10                        	ADD	ESP,16
   597 0000037D                                 L72:
   598 0000037D 8D 5D B4                        	LEA	EBX,DWORD [-76+EBP]
   599 00000380 53                              	PUSH	EBX
   600 00000381 E8 [00000000]                   	CALL	_fifo32_status
   601 00000386 59                              	POP	ECX
   602 00000387 85 C0                           	TEST	EAX,EAX
   603 00000389 7E 0D                           	JLE	L5
   604 0000038B 83 BD FFFFFC78 00               	CMP	DWORD [-904+EBP],0
   605 00000392 0F 88 00000841                  	JS	L79
   606 00000398                                 L5:
   607 00000398 8D 5D D4                        	LEA	EBX,DWORD [-44+EBP]
   608 0000039B E8 [00000000]                   	CALL	_io_cli
   609 000003A0 53                              	PUSH	EBX
   610 000003A1 E8 [00000000]                   	CALL	_fifo32_status
   611 000003A6 5A                              	POP	EDX
   612 000003A7 85 C0                           	TEST	EAX,EAX
   613 000003A9 0F 84 00000814                  	JE	L80
   614 000003AF 53                              	PUSH	EBX
   615 000003B0 E8 [00000000]                   	CALL	_fifo32_get
   616 000003B5 89 C6                           	MOV	ESI,EAX
   617 000003B7 E8 [00000000]                   	CALL	_io_sti
   618 000003BC 8B 85 FFFFFC64                  	MOV	EAX,DWORD [-924+EBP]
   619 000003C2 5F                              	POP	EDI
   620 000003C3 83 78 20 00                     	CMP	DWORD [32+EAX],0
   621 000003C7 75 2E                           	JNE	L8
   622 000003C9 8B 95 FFFFFC5C                  	MOV	EDX,DWORD [-932+EBP]
   623 000003CF 8B 42 10                        	MOV	EAX,DWORD [16+EDX]
   624 000003D2 8B 44 82 10                     	MOV	EAX,DWORD [16+EDX+EAX*4]
   625 000003D6 FF B5 FFFFFC48                  	PUSH	DWORD [-952+EBP]
   626 000003DC FF B5 FFFFFC60                  	PUSH	DWORD [-928+EBP]
   627 000003E2 50                              	PUSH	EAX
   628 000003E3 89 85 FFFFFC64                  	MOV	DWORD [-924+EBP],EAX
   629 000003E9 E8 00000912                     	CALL	_keywin_on
   630 000003EE 83 C4 0C                        	ADD	ESP,12
   631 000003F1 89 85 FFFFFC48                  	MOV	DWORD [-952+EBP],EAX
   632 000003F7                                 L8:
   633 000003F7 8D 86 FFFFFF00                  	LEA	EAX,DWORD [-256+ESI]
   634 000003FD 3D 000000FF                     	CMP	EAX,255
   635 00000402 0F 86 0000032B                  	JBE	L81
   636 00000408 8D 86 FFFFFE00                  	LEA	EAX,DWORD [-512+ESI]
   637 0000040E 3D 000000FF                     	CMP	EAX,255
   638 00000413 0F 86 000000D9                  	JBE	L82
   639 00000419 83 FE 01                        	CMP	ESI,1
   640 0000041C 0F 8F FFFFFF5B                  	JG	L72
   641 00000422 85 F6                           	TEST	ESI,ESI
   642 00000424 0F 84 0000009B                  	JE	L67
   643 0000042A 6A 00                           	PUSH	0
   644 0000042C 53                              	PUSH	EBX
   645 0000042D FF B5 FFFFFC58                  	PUSH	DWORD [-936+EBP]
   646 00000433 E8 [00000000]                   	CALL	_timer_init
   647 00000438 83 C4 0C                        	ADD	ESP,12
   648 0000043B 83 BD FFFFFC48 00               	CMP	DWORD [-952+EBP],0
   649 00000442 78 0A                           	JS	L69
   650 00000444 C7 85 FFFFFC48 00000007         	MOV	DWORD [-952+EBP],7
   651 0000044E                                 L69:
   652 0000044E 6A 32                           	PUSH	50
   653 00000450 FF B5 FFFFFC58                  	PUSH	DWORD [-936+EBP]
   654 00000456 E8 [00000000]                   	CALL	_timer_settime
   655 0000045B 58                              	POP	EAX
   656 0000045C 5A                              	POP	EDX
   657 0000045D 83 BD FFFFFC48 00               	CMP	DWORD [-952+EBP],0
   658 00000464 0F 88 FFFFFF13                  	JS	L72
   659 0000046A 8B 85 FFFFFC4C                  	MOV	EAX,DWORD [-948+EBP]
   660 00000470 6A 2D                           	PUSH	45
   661 00000472 83 C0 07                        	ADD	EAX,7
   662 00000475 50                              	PUSH	EAX
   663 00000476 6A 1F                           	PUSH	31
   664 00000478 FF B5 FFFFFC4C                  	PUSH	DWORD [-948+EBP]
   665 0000047E 0F B6 85 FFFFFC48               	MOVZX	EAX,BYTE [-952+EBP]
   666 00000485 50                              	PUSH	EAX
   667 00000486 8B 85 FFFFFCD0                  	MOV	EAX,DWORD [-816+EBP]
   668 0000048C FF 70 08                        	PUSH	DWORD [8+EAX]
   669 0000048F FF 30                           	PUSH	DWORD [EAX]
   670 00000491 E8 [00000000]                   	CALL	_boxfill8
   671 00000496 8B 95 FFFFFC90                  	MOV	EDX,DWORD [-880+EBP]
   672 0000049C 8B 85 FFFFFC4C                  	MOV	EAX,DWORD [-948+EBP]
   673 000004A2 6A 2E                           	PUSH	46
   674 000004A4 83 C0 08                        	ADD	EAX,8
   675 000004A7 50                              	PUSH	EAX
   676 000004A8 6A 1F                           	PUSH	31
   677 000004AA FF B5 FFFFFC4C                  	PUSH	DWORD [-948+EBP]
   678 000004B0 FF B5 FFFFFCD0                  	PUSH	DWORD [-816+EBP]
   679 000004B6 FF 32                           	PUSH	DWORD [EDX]
   680 000004B8 E8 [00000000]                   	CALL	_sheet_refresh
   681 000004BD 83 C4 34                        	ADD	ESP,52
   682 000004C0 E9 FFFFFEB8                     	JMP	L72
   683 000004C5                                 L67:
   684 000004C5 6A 01                           	PUSH	1
   685 000004C7 53                              	PUSH	EBX
   686 000004C8 FF B5 FFFFFC58                  	PUSH	DWORD [-936+EBP]
   687 000004CE E8 [00000000]                   	CALL	_timer_init
   688 000004D3 83 C4 0C                        	ADD	ESP,12
   689 000004D6 83 BD FFFFFC48 00               	CMP	DWORD [-952+EBP],0
   690 000004DD 0F 88 FFFFFF6B                  	JS	L69
   691 000004E3 C7 85 FFFFFC48 00000000         	MOV	DWORD [-952+EBP],0
   692 000004ED E9 FFFFFF5C                     	JMP	L69
   693 000004F2                                 L82:
   694 000004F2 89 F2                           	MOV	EDX,ESI
   695 000004F4 0F B6 C2                        	MOVZX	EAX,DL
   696 000004F7 50                              	PUSH	EAX
   697 000004F8 8D 85 FFFFFD24                  	LEA	EAX,DWORD [-732+EBP]
   698 000004FE 50                              	PUSH	EAX
   699 000004FF E8 [00000000]                   	CALL	_mouse_decode
   700 00000504 5E                              	POP	ESI
   701 00000505 5F                              	POP	EDI
   702 00000506 85 C0                           	TEST	EAX,EAX
   703 00000508 0F 84 FFFFFE6F                  	JE	L72
   704 0000050E 8B 8D FFFFFD2C                  	MOV	ECX,DWORD [-724+EBP]
   705 00000514 8B 85 FFFFFD28                  	MOV	EAX,DWORD [-728+EBP]
   706 0000051A 01 8D FFFFFC88                  	ADD	DWORD [-888+EBP],ECX
   707 00000520 01 85 FFFFFC8C                  	ADD	DWORD [-884+EBP],EAX
   708 00000526 0F 88 000001F8                  	JS	L83
   709 0000052C                                 L47:
   710 0000052C 83 BD FFFFFC88 00               	CMP	DWORD [-888+EBP],0
   711 00000533 0F 88 000001DC                  	JS	L84
   712 00000539                                 L48:
   713 00000539 8B 8D FFFFFC90                  	MOV	ECX,DWORD [-880+EBP]
   714 0000053F 8B 11                           	MOV	EDX,DWORD [ECX]
   715 00000541 8B 42 08                        	MOV	EAX,DWORD [8+EDX]
   716 00000544 48                              	DEC	EAX
   717 00000545 39 85 FFFFFC8C                  	CMP	DWORD [-884+EBP],EAX
   718 0000054B 7E 06                           	JLE	L49
   719 0000054D 89 85 FFFFFC8C                  	MOV	DWORD [-884+EBP],EAX
   720 00000553                                 L49:
   721 00000553 8B 42 0C                        	MOV	EAX,DWORD [12+EDX]
   722 00000556 48                              	DEC	EAX
   723 00000557 39 85 FFFFFC88                  	CMP	DWORD [-888+EBP],EAX
   724 0000055D 7E 06                           	JLE	L50
   725 0000055F 89 85 FFFFFC88                  	MOV	DWORD [-888+EBP],EAX
   726 00000565                                 L50:
   727 00000565 FF B5 FFFFFC88                  	PUSH	DWORD [-888+EBP]
   728 0000056B 8B 85 FFFFFC84                  	MOV	EAX,DWORD [-892+EBP]
   729 00000571 8B 95 FFFFFC90                  	MOV	EDX,DWORD [-880+EBP]
   730 00000577 FF B5 FFFFFC8C                  	PUSH	DWORD [-884+EBP]
   731 0000057D FF 70 14                        	PUSH	DWORD [20+EAX]
   732 00000580 FF 32                           	PUSH	DWORD [EDX]
   733 00000582 E8 [00000000]                   	CALL	_sheet_slide
   734 00000587 83 C4 10                        	ADD	ESP,16
   735 0000058A F7 85 FFFFFD30 00000001         	TEST	DWORD [-720+EBP],1
   736 00000594 75 0F                           	JNE	L85
   737 00000596 C7 85 FFFFFC70 FFFFFFFF         	MOV	DWORD [-912+EBP],-1
   738 000005A0 E9 FFFFFDD8                     	JMP	L72
   739 000005A5                                 L85:
   740 000005A5 83 BD FFFFFC70 00               	CMP	DWORD [-912+EBP],0
   741 000005AC 78 51                           	JS	L86
   742 000005AE 8B 9D FFFFFC88                  	MOV	EBX,DWORD [-888+EBP]
   743 000005B4 8B 85 FFFFFC68                  	MOV	EAX,DWORD [-920+EBP]
   744 000005BA 2B 9D FFFFFC6C                  	SUB	EBX,DWORD [-916+EBP]
   745 000005C0 8B B5 FFFFFC8C                  	MOV	ESI,DWORD [-884+EBP]
   746 000005C6 2B B5 FFFFFC70                  	SUB	ESI,DWORD [-912+EBP]
   747 000005CC 03 58 14                        	ADD	EBX,DWORD [20+EAX]
   748 000005CF 8B 95 FFFFFC90                  	MOV	EDX,DWORD [-880+EBP]
   749 000005D5 53                              	PUSH	EBX
   750 000005D6 03 70 10                        	ADD	ESI,DWORD [16+EAX]
   751 000005D9 56                              	PUSH	ESI
   752 000005DA 50                              	PUSH	EAX
   753 000005DB FF 32                           	PUSH	DWORD [EDX]
   754 000005DD E8 [00000000]                   	CALL	_sheet_slide
   755 000005E2 8B 85 FFFFFC88                  	MOV	EAX,DWORD [-888+EBP]
   756 000005E8 8B 8D FFFFFC8C                  	MOV	ECX,DWORD [-884+EBP]
   757 000005EE 89 85 FFFFFC6C                  	MOV	DWORD [-916+EBP],EAX
   758 000005F4 89 8D FFFFFC70                  	MOV	DWORD [-912+EBP],ECX
   759 000005FA E9 FFFFFD7B                     	JMP	L76
   760 000005FF                                 L86:
   761 000005FF 8B 8D FFFFFC90                  	MOV	ECX,DWORD [-880+EBP]
   762 00000605 8B 39                           	MOV	EDI,DWORD [ECX]
   763 00000607 8B 4F 10                        	MOV	ECX,DWORD [16+EDI]
   764 0000060A                                 L78:
   765 0000060A 49                              	DEC	ECX
   766 0000060B 85 C9                           	TEST	ECX,ECX
   767 0000060D 0F 8E FFFFFD6A                  	JLE	L72
   768 00000613 8B 44 8F 14                     	MOV	EAX,DWORD [20+EDI+ECX*4]
   769 00000617 8B 9D FFFFFC88                  	MOV	EBX,DWORD [-888+EBP]
   770 0000061D 8B B5 FFFFFC8C                  	MOV	ESI,DWORD [-884+EBP]
   771 00000623 89 85 FFFFFC68                  	MOV	DWORD [-920+EBP],EAX
   772 00000629 2B 58 14                        	SUB	EBX,DWORD [20+EAX]
   773 0000062C 2B 70 10                        	SUB	ESI,DWORD [16+EAX]
   774 0000062F 78 D9                           	JS	L78
   775 00000631 8B 40 08                        	MOV	EAX,DWORD [8+EAX]
   776 00000634 39 C6                           	CMP	ESI,EAX
   777 00000636 7D D2                           	JGE	L78
   778 00000638 85 DB                           	TEST	EBX,EBX
   779 0000063A 78 CE                           	JS	L78
   780 0000063C 8B 95 FFFFFC68                  	MOV	EDX,DWORD [-920+EBP]
   781 00000642 3B 5A 0C                        	CMP	EBX,DWORD [12+EDX]
   782 00000645 7D C3                           	JGE	L78
   783 00000647 0F AF C3                        	IMUL	EAX,EBX
   784 0000064A 89 85 FFFFFC44                  	MOV	DWORD [-956+EBP],EAX
   785 00000650 8B 12                           	MOV	EDX,DWORD [EDX]
   786 00000652 8B 85 FFFFFC44                  	MOV	EAX,DWORD [-956+EBP]
   787 00000658 01 F0                           	ADD	EAX,ESI
   788 0000065A 0F B6 04 10                     	MOVZX	EAX,BYTE [EAX+EDX*1]
   789 0000065E 8B 95 FFFFFC68                  	MOV	EDX,DWORD [-920+EBP]
   790 00000664 3B 42 18                        	CMP	EAX,DWORD [24+EDX]
   791 00000667 74 A1                           	JE	L78
   792 00000669 8B 47 10                        	MOV	EAX,DWORD [16+EDI]
   793 0000066C 8B 8D FFFFFC90                  	MOV	ECX,DWORD [-880+EBP]
   794 00000672 48                              	DEC	EAX
   795 00000673 50                              	PUSH	EAX
   796 00000674 52                              	PUSH	EDX
   797 00000675 FF 31                           	PUSH	DWORD [ECX]
   798 00000677 E8 [00000000]                   	CALL	_sheet_updown
   799 0000067C 83 C4 0C                        	ADD	ESP,12
   800 0000067F 83 FE 02                        	CMP	ESI,2
   801 00000682 7E 32                           	JLE	L59
   802 00000684 8B 95 FFFFFC68                  	MOV	EDX,DWORD [-920+EBP]
   803 0000068A 8B 42 08                        	MOV	EAX,DWORD [8+EDX]
   804 0000068D 83 E8 03                        	SUB	EAX,3
   805 00000690 39 C6                           	CMP	ESI,EAX
   806 00000692 7D 22                           	JGE	L59
   807 00000694 83 FB 02                        	CMP	EBX,2
   808 00000697 7E 1D                           	JLE	L59
   809 00000699 83 FB 14                        	CMP	EBX,20
   810 0000069C 7F 18                           	JG	L59
   811 0000069E 8B 8D FFFFFC8C                  	MOV	ECX,DWORD [-884+EBP]
   812 000006A4 8B 85 FFFFFC88                  	MOV	EAX,DWORD [-888+EBP]
   813 000006AA 89 8D FFFFFC70                  	MOV	DWORD [-912+EBP],ECX
   814 000006B0 89 85 FFFFFC6C                  	MOV	DWORD [-916+EBP],EAX
   815 000006B6                                 L59:
   816 000006B6 8D 46 F2                        	LEA	EAX,DWORD [-14+ESI]
   817 000006B9 83 F8 07                        	CMP	EAX,7
   818 000006BC 0F 87 FFFFFCBB                  	JA	L72
   819 000006C2 83 FB 0F                        	CMP	EBX,15
   820 000006C5 0F 8F FFFFFCB2                  	JG	L72
   821 000006CB 8B 95 FFFFFC68                  	MOV	EDX,DWORD [-920+EBP]
   822 000006D1 F6 42 20 10                     	TEST	BYTE [32+EDX],16
   823 000006D5 0F 84 FFFFFCA2                  	JE	L72
   824 000006DB 68 [00000154]                   	PUSH	LC2
   825 000006E0 FF 35 00000FEC                  	PUSH	DWORD [4076]
   826 000006E6 E8 [00000000]                   	CALL	_cons_putstr
   827 000006EB E8 [00000000]                   	CALL	_io_cli
   828 000006F0 8B 8D FFFFFC50                  	MOV	ECX,DWORD [-944+EBP]
   829 000006F6 8B 85 FFFFFC50                  	MOV	EAX,DWORD [-944+EBP]
   830 000006FC 83 C0 14                        	ADD	EAX,20
   831 000006FF 89 41 38                        	MOV	DWORD [56+ECX],EAX
   832 00000702 C7 41 30 [00000000]             	MOV	DWORD [48+ECX],_asm_end_app
   833 00000709 E8 [00000000]                   	CALL	_io_sti
   834 0000070E 59                              	POP	ECX
   835 0000070F 5B                              	POP	EBX
   836 00000710 E9 FFFFFC68                     	JMP	L72
   837 00000715                                 L84:
   838 00000715 C7 85 FFFFFC88 00000000         	MOV	DWORD [-888+EBP],0
   839 0000071F E9 FFFFFE15                     	JMP	L48
   840 00000724                                 L83:
   841 00000724 C7 85 FFFFFC8C 00000000         	MOV	DWORD [-884+EBP],0
   842 0000072E E9 FFFFFDF9                     	JMP	L47
   843 00000733                                 L81:
   844 00000733 81 FE 0000017F                  	CMP	ESI,383
   845 00000739 0F 8F 00000478                  	JG	L10
   846 0000073F 83 BD FFFFFC80 00               	CMP	DWORD [-896+EBP],0
   847 00000746 0F 85 00000460                  	JNE	L11
   848 0000074C 8A 86 [FFFFFF54]                	MOV	AL,BYTE [_keytable0.1-256+ESI]
   849 00000752                                 L77:
   850 00000752 88 85 FFFFFCF4                  	MOV	BYTE [-780+EBP],AL
   851 00000758                                 L13:
   852 00000758 8A 95 FFFFFCF4                  	MOV	DL,BYTE [-780+EBP]
   853 0000075E 8D 42 BF                        	LEA	EAX,DWORD [-65+EDX]
   854 00000761 3C 19                           	CMP	AL,25
   855 00000763 77 1D                           	JA	L14
   856 00000765 F7 85 FFFFFC7C 00000004         	TEST	DWORD [-900+EBP],4
   857 0000076F 0F 85 00000428                  	JNE	L75
   858 00000775 83 BD FFFFFC80 00               	CMP	DWORD [-896+EBP],0
   859 0000077C 0F 84 0000040D                  	JE	L16
   860 00000782                                 L14:
   861 00000782 8A 85 FFFFFCF4                  	MOV	AL,BYTE [-780+EBP]
   862 00000788 84 C0                           	TEST	AL,AL
   863 0000078A 74 2E                           	JE	L18
   864 0000078C 8B 8D FFFFFC60                  	MOV	ECX,DWORD [-928+EBP]
   865 00000792 39 8D FFFFFC64                  	CMP	DWORD [-924+EBP],ECX
   866 00000798 0F 84 000003A6                  	JE	L87
   867 0000079E 0F BE C0                        	MOVSX	EAX,AL
   868 000007A1 05 00000100                     	ADD	EAX,256
   869 000007A6 8B 95 FFFFFC64                  	MOV	EDX,DWORD [-924+EBP]
   870 000007AC 50                              	PUSH	EAX
   871 000007AD 8B 42 24                        	MOV	EAX,DWORD [36+EDX]
   872 000007B0 FF 70 78                        	PUSH	DWORD [120+EAX]
   873 000007B3 E8 [00000000]                   	CALL	_fifo32_put
   874 000007B8 59                              	POP	ECX
   875 000007B9 5B                              	POP	EBX
   876 000007BA                                 L18:
   877 000007BA 81 FE 0000010E                  	CMP	ESI,270
   878 000007C0 0F 84 00000311                  	JE	L88
   879 000007C6                                 L22:
   880 000007C6 81 FE 0000011C                  	CMP	ESI,284
   881 000007CC 0F 84 000002D6                  	JE	L89
   882 000007D2                                 L26:
   883 000007D2 81 FE 0000010F                  	CMP	ESI,271
   884 000007D8 0F 84 0000025E                  	JE	L90
   885 000007DE                                 L28:
   886 000007DE 81 FE 0000012A                  	CMP	ESI,298
   887 000007E4 0F 84 00000246                  	JE	L91
   888 000007EA                                 L30:
   889 000007EA 81 FE 00000136                  	CMP	ESI,310
   890 000007F0 0F 84 0000022E                  	JE	L92
   891 000007F6                                 L31:
   892 000007F6 81 FE 000001AA                  	CMP	ESI,426
   893 000007FC 0F 84 00000216                  	JE	L93
   894 00000802                                 L32:
   895 00000802 81 FE 000001B6                  	CMP	ESI,438
   896 00000808 0F 84 000001FE                  	JE	L94
   897 0000080E                                 L33:
   898 0000080E 81 FE 0000011D                  	CMP	ESI,285
   899 00000814 0F 84 000001E6                  	JE	L95
   900 0000081A                                 L34:
   901 0000081A 81 FE 0000019D                  	CMP	ESI,413
   902 00000820 0F 84 000001CE                  	JE	L96
   903 00000826                                 L35:
   904 00000826 81 FE 0000013A                  	CMP	ESI,314
   905 0000082C 0F 84 00000199                  	JE	L97
   906 00000832                                 L36:
   907 00000832 81 FE 00000145                  	CMP	ESI,325
   908 00000838 0F 84 00000164                  	JE	L98
   909 0000083E                                 L37:
   910 0000083E 81 FE 00000146                  	CMP	ESI,326
   911 00000844 0F 84 0000012F                  	JE	L99
   912 0000084A                                 L38:
   913 0000084A 81 FE 0000012E                  	CMP	ESI,302
   914 00000850 0F 84 000000CC                  	JE	L100
   915 00000856                                 L39:
   916 00000856 81 FE 00000157                  	CMP	ESI,343
   917 0000085C 0F 84 00000096                  	JE	L101
   918 00000862                                 L40:
   919 00000862 81 FE 000001FA                  	CMP	ESI,506
   920 00000868 74 7F                           	JE	L102
   921 0000086A                                 L41:
   922 0000086A 81 FE 000001FE                  	CMP	ESI,510
   923 00000870 74 61                           	JE	L103
   924 00000872                                 L42:
   925 00000872 83 BD FFFFFC48 00               	CMP	DWORD [-952+EBP],0
   926 00000879 78 29                           	JS	L43
   927 0000087B 8B 85 FFFFFC4C                  	MOV	EAX,DWORD [-948+EBP]
   928 00000881 6A 2D                           	PUSH	45
   929 00000883 83 C0 07                        	ADD	EAX,7
   930 00000886 50                              	PUSH	EAX
   931 00000887 8B 85 FFFFFCD0                  	MOV	EAX,DWORD [-816+EBP]
   932 0000088D 6A 1F                           	PUSH	31
   933 0000088F FF B5 FFFFFC4C                  	PUSH	DWORD [-948+EBP]
   934 00000895 6A 0F                           	PUSH	15
   935 00000897 FF 70 08                        	PUSH	DWORD [8+EAX]
   936 0000089A FF 30                           	PUSH	DWORD [EAX]
   937 0000089C E8 [00000000]                   	CALL	_boxfill8
   938 000008A1 83 C4 1C                        	ADD	ESP,28
   939 000008A4                                 L43:
   940 000008A4 8B 85 FFFFFC4C                  	MOV	EAX,DWORD [-948+EBP]
   941 000008AA 6A 2E                           	PUSH	46
   942 000008AC 83 C0 08                        	ADD	EAX,8
   943 000008AF 8B 8D FFFFFC90                  	MOV	ECX,DWORD [-880+EBP]
   944 000008B5 50                              	PUSH	EAX
   945 000008B6 6A 1F                           	PUSH	31
   946 000008B8 FF B5 FFFFFC4C                  	PUSH	DWORD [-948+EBP]
   947 000008BE FF B5 FFFFFCD0                  	PUSH	DWORD [-816+EBP]
   948 000008C4 FF 31                           	PUSH	DWORD [ECX]
   949 000008C6 E8 [00000000]                   	CALL	_sheet_refresh
   950 000008CB 83 C4 18                        	ADD	ESP,24
   951 000008CE E9 FFFFFAAA                     	JMP	L72
   952 000008D3                                 L103:
   953 000008D3 E8 [00000000]                   	CALL	_wait_KBC_sendready
   954 000008D8 FF B5 FFFFFC78                  	PUSH	DWORD [-904+EBP]
   955 000008DE 6A 60                           	PUSH	96
   956 000008E0 E8 [00000000]                   	CALL	_io_out8
   957 000008E5 58                              	POP	EAX
   958 000008E6 5A                              	POP	EDX
   959 000008E7 EB 89                           	JMP	L42
   960 000008E9                                 L102:
   961 000008E9 C7 85 FFFFFC78 FFFFFFFF         	MOV	DWORD [-904+EBP],-1
   962 000008F3 E9 FFFFFF72                     	JMP	L41
   963 000008F8                                 L101:
   964 000008F8 8B 95 FFFFFC90                  	MOV	EDX,DWORD [-880+EBP]
   965 000008FE 8B 02                           	MOV	EAX,DWORD [EDX]
   966 00000900 8B 40 10                        	MOV	EAX,DWORD [16+EAX]
   967 00000903 83 F8 02                        	CMP	EAX,2
   968 00000906 0F 8E FFFFFF56                  	JLE	L40
   969 0000090C 48                              	DEC	EAX
   970 0000090D 50                              	PUSH	EAX
   971 0000090E 8B 02                           	MOV	EAX,DWORD [EDX]
   972 00000910 FF 70 18                        	PUSH	DWORD [24+EAX]
   973 00000913 FF 32                           	PUSH	DWORD [EDX]
   974 00000915 E8 [00000000]                   	CALL	_sheet_updown
   975 0000091A 83 C4 0C                        	ADD	ESP,12
   976 0000091D E9 FFFFFF40                     	JMP	L40
   977 00000922                                 L100:
   978 00000922 83 BD FFFFFC74 00               	CMP	DWORD [-908+EBP],0
   979 00000929 0F 84 FFFFFF27                  	JE	L39
   980 0000092F 8B 95 FFFFFC50                  	MOV	EDX,DWORD [-944+EBP]
   981 00000935 83 7A 18 00                     	CMP	DWORD [24+EDX],0
   982 00000939 0F 84 FFFFFF17                  	JE	L39
   983 0000093F 68 [00000165]                   	PUSH	LC1
   984 00000944 FF 35 00000FEC                  	PUSH	DWORD [4076]
   985 0000094A E8 [00000000]                   	CALL	_cons_putstr
   986 0000094F E8 [00000000]                   	CALL	_io_cli
   987 00000954 8B 8D FFFFFC50                  	MOV	ECX,DWORD [-944+EBP]
   988 0000095A 8B 85 FFFFFC50                  	MOV	EAX,DWORD [-944+EBP]
   989 00000960 83 C0 14                        	ADD	EAX,20
   990 00000963 89 41 38                        	MOV	DWORD [56+ECX],EAX
   991 00000966 C7 41 30 [00000000]             	MOV	DWORD [48+ECX],_asm_end_app
   992 0000096D E8 [00000000]                   	CALL	_io_sti
   993 00000972 59                              	POP	ECX
   994 00000973 5B                              	POP	EBX
   995 00000974 E9 FFFFFEDD                     	JMP	L39
   996 00000979                                 L99:
   997 00000979 68 000000ED                     	PUSH	237
   998 0000097E 8D 5D B4                        	LEA	EBX,DWORD [-76+EBP]
   999 00000981 53                              	PUSH	EBX
  1000 00000982 83 B5 FFFFFC7C 01               	XOR	DWORD [-900+EBP],1
  1001 00000989 E8 [00000000]                   	CALL	_fifo32_put
  1002 0000098E FF B5 FFFFFC7C                  	PUSH	DWORD [-900+EBP]
  1003 00000994 53                              	PUSH	EBX
  1004 00000995 E8 [00000000]                   	CALL	_fifo32_put
  1005 0000099A 83 C4 10                        	ADD	ESP,16
  1006 0000099D E9 FFFFFEA8                     	JMP	L38
  1007 000009A2                                 L98:
  1008 000009A2 68 000000ED                     	PUSH	237
  1009 000009A7 8D 5D B4                        	LEA	EBX,DWORD [-76+EBP]
  1010 000009AA 53                              	PUSH	EBX
  1011 000009AB 83 B5 FFFFFC7C 02               	XOR	DWORD [-900+EBP],2
  1012 000009B2 E8 [00000000]                   	CALL	_fifo32_put
  1013 000009B7 FF B5 FFFFFC7C                  	PUSH	DWORD [-900+EBP]
  1014 000009BD 53                              	PUSH	EBX
  1015 000009BE E8 [00000000]                   	CALL	_fifo32_put
  1016 000009C3 83 C4 10                        	ADD	ESP,16
  1017 000009C6 E9 FFFFFE73                     	JMP	L37
  1018 000009CB                                 L97:
  1019 000009CB 68 000000ED                     	PUSH	237
  1020 000009D0 8D 5D B4                        	LEA	EBX,DWORD [-76+EBP]
  1021 000009D3 53                              	PUSH	EBX
  1022 000009D4 83 B5 FFFFFC7C 04               	XOR	DWORD [-900+EBP],4
  1023 000009DB E8 [00000000]                   	CALL	_fifo32_put
  1024 000009E0 FF B5 FFFFFC7C                  	PUSH	DWORD [-900+EBP]
  1025 000009E6 53                              	PUSH	EBX
  1026 000009E7 E8 [00000000]                   	CALL	_fifo32_put
  1027 000009EC 83 C4 10                        	ADD	ESP,16
  1028 000009EF E9 FFFFFE3E                     	JMP	L36
  1029 000009F4                                 L96:
  1030 000009F4 83 A5 FFFFFC74 FE               	AND	DWORD [-908+EBP],-2
  1031 000009FB E9 FFFFFE26                     	JMP	L35
  1032 00000A00                                 L95:
  1033 00000A00 83 8D FFFFFC74 01               	OR	DWORD [-908+EBP],1
  1034 00000A07 E9 FFFFFE0E                     	JMP	L34
  1035 00000A0C                                 L94:
  1036 00000A0C 83 A5 FFFFFC80 FD               	AND	DWORD [-896+EBP],-3
  1037 00000A13 E9 FFFFFDF6                     	JMP	L33
  1038 00000A18                                 L93:
  1039 00000A18 83 A5 FFFFFC80 FE               	AND	DWORD [-896+EBP],-2
  1040 00000A1F E9 FFFFFDDE                     	JMP	L32
  1041 00000A24                                 L92:
  1042 00000A24 83 8D FFFFFC80 02               	OR	DWORD [-896+EBP],2
  1043 00000A2B E9 FFFFFDC6                     	JMP	L31
  1044 00000A30                                 L91:
  1045 00000A30 83 8D FFFFFC80 01               	OR	DWORD [-896+EBP],1
  1046 00000A37 E9 FFFFFDAE                     	JMP	L30
  1047 00000A3C                                 L90:
  1048 00000A3C FF B5 FFFFFC4C                  	PUSH	DWORD [-948+EBP]
  1049 00000A42 FF B5 FFFFFC48                  	PUSH	DWORD [-952+EBP]
  1050 00000A48 FF B5 FFFFFC60                  	PUSH	DWORD [-928+EBP]
  1051 00000A4E FF B5 FFFFFC64                  	PUSH	DWORD [-924+EBP]
  1052 00000A54 E8 0000024B                     	CALL	_keywin_off
  1053 00000A59 83 C4 10                        	ADD	ESP,16
  1054 00000A5C 89 85 FFFFFC48                  	MOV	DWORD [-952+EBP],EAX
  1055 00000A62 8B 85 FFFFFC64                  	MOV	EAX,DWORD [-924+EBP]
  1056 00000A68 8B 48 1C                        	MOV	ECX,DWORD [28+EAX]
  1057 00000A6B 49                              	DEC	ECX
  1058 00000A6C 75 0A                           	JNE	L29
  1059 00000A6E 8B 95 FFFFFC5C                  	MOV	EDX,DWORD [-932+EBP]
  1060 00000A74 8B 4A 10                        	MOV	ECX,DWORD [16+EDX]
  1061 00000A77 49                              	DEC	ECX
  1062 00000A78                                 L29:
  1063 00000A78 8B 85 FFFFFC5C                  	MOV	EAX,DWORD [-932+EBP]
  1064 00000A7E 8B 4C 88 14                     	MOV	ECX,DWORD [20+EAX+ECX*4]
  1065 00000A82 FF B5 FFFFFC48                  	PUSH	DWORD [-952+EBP]
  1066 00000A88 FF B5 FFFFFC60                  	PUSH	DWORD [-928+EBP]
  1067 00000A8E 51                              	PUSH	ECX
  1068 00000A8F 89 8D FFFFFC64                  	MOV	DWORD [-924+EBP],ECX
  1069 00000A95 E8 00000266                     	CALL	_keywin_on
  1070 00000A9A 83 C4 0C                        	ADD	ESP,12
  1071 00000A9D 89 85 FFFFFC48                  	MOV	DWORD [-952+EBP],EAX
  1072 00000AA3 E9 FFFFFD36                     	JMP	L28
  1073 00000AA8                                 L89:
  1074 00000AA8 8B 8D FFFFFC60                  	MOV	ECX,DWORD [-928+EBP]
  1075 00000AAE 39 8D FFFFFC64                  	CMP	DWORD [-924+EBP],ECX
  1076 00000AB4 0F 84 FFFFFD18                  	JE	L26
  1077 00000ABA 8B 95 FFFFFC64                  	MOV	EDX,DWORD [-924+EBP]
  1078 00000AC0 68 0000010A                     	PUSH	266
  1079 00000AC5 8B 42 24                        	MOV	EAX,DWORD [36+EDX]
  1080 00000AC8 FF 70 78                        	PUSH	DWORD [120+EAX]
  1081 00000ACB E8 [00000000]                   	CALL	_fifo32_put
  1082 00000AD0 5F                              	POP	EDI
  1083 00000AD1 58                              	POP	EAX
  1084 00000AD2 E9 FFFFFCFB                     	JMP	L26
  1085 00000AD7                                 L88:
  1086 00000AD7 8B 8D FFFFFC60                  	MOV	ECX,DWORD [-928+EBP]
  1087 00000ADD 39 8D FFFFFC64                  	CMP	DWORD [-924+EBP],ECX
  1088 00000AE3 74 1D                           	JE	L104
  1089 00000AE5 8B 95 FFFFFC64                  	MOV	EDX,DWORD [-924+EBP]
  1090 00000AEB 68 00000108                     	PUSH	264
  1091 00000AF0 8B 42 24                        	MOV	EAX,DWORD [36+EDX]
  1092 00000AF3 FF 70 78                        	PUSH	DWORD [120+EAX]
  1093 00000AF6 E8 [00000000]                   	CALL	_fifo32_put
  1094 00000AFB 58                              	POP	EAX
  1095 00000AFC 5A                              	POP	EDX
  1096 00000AFD E9 FFFFFCC4                     	JMP	L22
  1097 00000B02                                 L104:
  1098 00000B02 83 BD FFFFFC4C 10               	CMP	DWORD [-948+EBP],16
  1099 00000B09 0F 8E FFFFFCB7                  	JLE	L22
  1100 00000B0F 6A 01                           	PUSH	1
  1101 00000B11 8B 85 FFFFFC90                  	MOV	EAX,DWORD [-880+EBP]
  1102 00000B17 68 [00000174]                   	PUSH	LC0
  1103 00000B1C 6A 00                           	PUSH	0
  1104 00000B1E 6A 07                           	PUSH	7
  1105 00000B20 6A 1F                           	PUSH	31
  1106 00000B22 FF B5 FFFFFC4C                  	PUSH	DWORD [-948+EBP]
  1107 00000B28 FF B5 FFFFFC64                  	PUSH	DWORD [-924+EBP]
  1108 00000B2E FF 30                           	PUSH	DWORD [EAX]
  1109 00000B30 E8 [00000000]                   	CALL	_putfonts8_asc_sht
  1110 00000B35 83 C4 20                        	ADD	ESP,32
  1111 00000B38 83 AD FFFFFC4C 08               	SUB	DWORD [-948+EBP],8
  1112 00000B3F E9 FFFFFC82                     	JMP	L22
  1113 00000B44                                 L87:
  1114 00000B44 83 BD FFFFFC4C 7F               	CMP	DWORD [-948+EBP],127
  1115 00000B4B 0F 8F FFFFFC69                  	JG	L18
  1116 00000B51 6A 01                           	PUSH	1
  1117 00000B53 8D 85 FFFFFCF4                  	LEA	EAX,DWORD [-780+EBP]
  1118 00000B59 50                              	PUSH	EAX
  1119 00000B5A 8B 85 FFFFFC90                  	MOV	EAX,DWORD [-880+EBP]
  1120 00000B60 6A 00                           	PUSH	0
  1121 00000B62 6A 07                           	PUSH	7
  1122 00000B64 6A 1F                           	PUSH	31
  1123 00000B66 FF B5 FFFFFC4C                  	PUSH	DWORD [-948+EBP]
  1124 00000B6C FF B5 FFFFFC64                  	PUSH	DWORD [-924+EBP]
  1125 00000B72 C6 85 FFFFFCF5 00               	MOV	BYTE [-779+EBP],0
  1126 00000B79 FF 30                           	PUSH	DWORD [EAX]
  1127 00000B7B E8 [00000000]                   	CALL	_putfonts8_asc_sht
  1128 00000B80 83 C4 20                        	ADD	ESP,32
  1129 00000B83 83 85 FFFFFC4C 08               	ADD	DWORD [-948+EBP],8
  1130 00000B8A E9 FFFFFC2B                     	JMP	L18
  1131 00000B8F                                 L16:
  1132 00000B8F 8D 42 20                        	LEA	EAX,DWORD [32+EDX]
  1133 00000B92 88 85 FFFFFCF4                  	MOV	BYTE [-780+EBP],AL
  1134 00000B98 E9 FFFFFBE5                     	JMP	L14
  1135 00000B9D                                 L75:
  1136 00000B9D 83 BD FFFFFC80 00               	CMP	DWORD [-896+EBP],0
  1137 00000BA4 0F 84 FFFFFBD8                  	JE	L14
  1138 00000BAA EB E3                           	JMP	L16
  1139 00000BAC                                 L11:
  1140 00000BAC 8A 86 [FFFFFFD4]                	MOV	AL,BYTE [_keytable1.2-256+ESI]
  1141 00000BB2 E9 FFFFFB9B                     	JMP	L77
  1142 00000BB7                                 L10:
  1143 00000BB7 C6 85 FFFFFCF4 00               	MOV	BYTE [-780+EBP],0
  1144 00000BBE E9 FFFFFB95                     	JMP	L13
  1145 00000BC3                                 L80:
  1146 00000BC3 FF B5 FFFFFC54                  	PUSH	DWORD [-940+EBP]
  1147 00000BC9 E8 [00000000]                   	CALL	_task_sleep
  1148 00000BCE E8 [00000000]                   	CALL	_io_sti
  1149 00000BD3 58                              	POP	EAX
  1150 00000BD4 E9 FFFFF7A4                     	JMP	L72
  1151 00000BD9                                 L79:
  1152 00000BD9 53                              	PUSH	EBX
  1153 00000BDA E8 [00000000]                   	CALL	_fifo32_get
  1154 00000BDF 89 85 FFFFFC78                  	MOV	DWORD [-904+EBP],EAX
  1155 00000BE5 E8 [00000000]                   	CALL	_wait_KBC_sendready
  1156 00000BEA FF B5 FFFFFC78                  	PUSH	DWORD [-904+EBP]
  1157 00000BF0 6A 60                           	PUSH	96
  1158 00000BF2 E8 [00000000]                   	CALL	_io_out8
  1159 00000BF7 83 C4 0C                        	ADD	ESP,12
  1160 00000BFA E9 FFFFF799                     	JMP	L5
  1161 00000BFF                                 L73:
  1162                                          [SECTION .data]
  1163 00000176                                 LC3:
  1164 00000176 25 31 31 64 00                  	DB	"%11d",0x00
  1165                                          [SECTION .text]
  1166 00000BFF                                 	GLOBAL	_task_b_main
  1167 00000BFF                                 _task_b_main:
  1168 00000BFF 55                              	PUSH	EBP
  1169 00000C00 89 E5                           	MOV	EBP,ESP
  1170 00000C02 57                              	PUSH	EDI
  1171 00000C03 56                              	PUSH	ESI
  1172 00000C04 31 FF                           	XOR	EDI,EDI
  1173 00000C06 53                              	PUSH	EBX
  1174 00000C07 8D 85 FFFFFDD4                  	LEA	EAX,DWORD [-556+EBP]
  1175 00000C0D 81 EC 00000230                  	SUB	ESP,560
  1176 00000C13 8D 5D D4                        	LEA	EBX,DWORD [-44+EBP]
  1177 00000C16 6A 00                           	PUSH	0
  1178 00000C18 50                              	PUSH	EAX
  1179 00000C19 68 00000080                     	PUSH	128
  1180 00000C1E 53                              	PUSH	EBX
  1181 00000C1F E8 [00000000]                   	CALL	_fifo32_init
  1182 00000C24 E8 [00000000]                   	CALL	_timer_alloc
  1183 00000C29 6A 64                           	PUSH	100
  1184 00000C2B 53                              	PUSH	EBX
  1185 00000C2C 89 C6                           	MOV	ESI,EAX
  1186 00000C2E 50                              	PUSH	EAX
  1187 00000C2F E8 [00000000]                   	CALL	_timer_init
  1188 00000C34 6A 64                           	PUSH	100
  1189 00000C36 56                              	PUSH	ESI
  1190 00000C37 E8 [00000000]                   	CALL	_timer_settime
  1191 00000C3C 83 C4 24                        	ADD	ESP,36
  1192 00000C3F                                 L106:
  1193 00000C3F 8D 5D D4                        	LEA	EBX,DWORD [-44+EBP]
  1194 00000C42 E8 [00000000]                   	CALL	_io_cli
  1195 00000C47 53                              	PUSH	EBX
  1196 00000C48 47                              	INC	EDI
  1197 00000C49 E8 [00000000]                   	CALL	_fifo32_status
  1198 00000C4E 5A                              	POP	EDX
  1199 00000C4F 85 C0                           	TEST	EAX,EAX
  1200 00000C51 74 4A                           	JE	L112
  1201 00000C53 53                              	PUSH	EBX
  1202 00000C54 E8 [00000000]                   	CALL	_fifo32_get
  1203 00000C59 89 C3                           	MOV	EBX,EAX
  1204 00000C5B E8 [00000000]                   	CALL	_io_sti
  1205 00000C60 58                              	POP	EAX
  1206 00000C61 83 FB 64                        	CMP	EBX,100
  1207 00000C64 75 D9                           	JNE	L106
  1208 00000C66 57                              	PUSH	EDI
  1209 00000C67 8D 9D FFFFFDC4                  	LEA	EBX,DWORD [-572+EBP]
  1210 00000C6D 68 [00000176]                   	PUSH	LC3
  1211 00000C72 53                              	PUSH	EBX
  1212 00000C73 E8 [00000000]                   	CALL	_sprintf
  1213 00000C78 6A 0B                           	PUSH	11
  1214 00000C7A 53                              	PUSH	EBX
  1215 00000C7B 6A 11                           	PUSH	17
  1216 00000C7D 6A 0E                           	PUSH	14
  1217 00000C7F 6A 1C                           	PUSH	28
  1218 00000C81 6A 18                           	PUSH	24
  1219 00000C83 FF 75 08                        	PUSH	DWORD [8+EBP]
  1220 00000C86 FF 75 0C                        	PUSH	DWORD [12+EBP]
  1221 00000C89 E8 [00000000]                   	CALL	_putfonts8_asc_sht
  1222 00000C8E 83 C4 2C                        	ADD	ESP,44
  1223 00000C91 6A 64                           	PUSH	100
  1224 00000C93 56                              	PUSH	ESI
  1225 00000C94 E8 [00000000]                   	CALL	_timer_settime
  1226 00000C99 5B                              	POP	EBX
  1227 00000C9A 58                              	POP	EAX
  1228 00000C9B EB A2                           	JMP	L106
  1229 00000C9D                                 L112:
  1230 00000C9D E8 [00000000]                   	CALL	_io_sti
  1231 00000CA2 EB 9B                           	JMP	L106
  1232 00000CA4                                 	GLOBAL	_keywin_off
  1233 00000CA4                                 _keywin_off:
  1234 00000CA4 55                              	PUSH	EBP
  1235 00000CA5 89 E5                           	MOV	EBP,ESP
  1236 00000CA7 57                              	PUSH	EDI
  1237 00000CA8 56                              	PUSH	ESI
  1238 00000CA9 53                              	PUSH	EBX
  1239 00000CAA 8B 7D 10                        	MOV	EDI,DWORD [16+EBP]
  1240 00000CAD 8B 5D 08                        	MOV	EBX,DWORD [8+EBP]
  1241 00000CB0 6A 01                           	PUSH	1
  1242 00000CB2 53                              	PUSH	EBX
  1243 00000CB3 8B 75 14                        	MOV	ESI,DWORD [20+EBP]
  1244 00000CB6 E8 [00000000]                   	CALL	_Sel_window
  1245 00000CBB 3B 5D 0C                        	CMP	EBX,DWORD [12+EBP]
  1246 00000CBE 58                              	POP	EAX
  1247 00000CBF 5A                              	POP	EDX
  1248 00000CC0 74 21                           	JE	L117
  1249 00000CC2 F6 43 20 20                     	TEST	BYTE [32+EBX],32
  1250 00000CC6 75 0A                           	JNE	L118
  1251 00000CC8                                 L115:
  1252 00000CC8 8D 65 F4                        	LEA	ESP,DWORD [-12+EBP]
  1253 00000CCB 89 F8                           	MOV	EAX,EDI
  1254 00000CCD 5B                              	POP	EBX
  1255 00000CCE 5E                              	POP	ESI
  1256 00000CCF 5F                              	POP	EDI
  1257 00000CD0 5D                              	POP	EBP
  1258 00000CD1 C3                              	RET
  1259 00000CD2                                 L118:
  1260 00000CD2 6A 03                           	PUSH	3
  1261 00000CD4 8B 43 24                        	MOV	EAX,DWORD [36+EBX]
  1262 00000CD7 FF 70 78                        	PUSH	DWORD [120+EAX]
  1263 00000CDA E8 [00000000]                   	CALL	_fifo32_put
  1264 00000CDF 59                              	POP	ECX
  1265 00000CE0 5B                              	POP	EBX
  1266 00000CE1 EB E5                           	JMP	L115
  1267 00000CE3                                 L117:
  1268 00000CE3 6A 2E                           	PUSH	46
  1269 00000CE5 8D 46 07                        	LEA	EAX,DWORD [7+ESI]
  1270 00000CE8 50                              	PUSH	EAX
  1271 00000CE9 83 CF FF                        	OR	EDI,-1
  1272 00000CEC 6A 1F                           	PUSH	31
  1273 00000CEE 56                              	PUSH	ESI
  1274 00000CEF 6A 00                           	PUSH	0
  1275 00000CF1 FF 73 08                        	PUSH	DWORD [8+EBX]
  1276 00000CF4 FF 33                           	PUSH	DWORD [EBX]
  1277 00000CF6 E8 [00000000]                   	CALL	_boxfill8
  1278 00000CFB 83 C4 1C                        	ADD	ESP,28
  1279 00000CFE EB C8                           	JMP	L115
  1280 00000D00                                 	GLOBAL	_keywin_on
  1281 00000D00                                 _keywin_on:
  1282 00000D00 55                              	PUSH	EBP
  1283 00000D01 89 E5                           	MOV	EBP,ESP
  1284 00000D03 56                              	PUSH	ESI
  1285 00000D04 53                              	PUSH	EBX
  1286 00000D05 6A 00                           	PUSH	0
  1287 00000D07 8B 5D 08                        	MOV	EBX,DWORD [8+EBP]
  1288 00000D0A 53                              	PUSH	EBX
  1289 00000D0B 8B 75 10                        	MOV	ESI,DWORD [16+EBP]
  1290 00000D0E E8 [00000000]                   	CALL	_Sel_window
  1291 00000D13 3B 5D 0C                        	CMP	EBX,DWORD [12+EBP]
  1292 00000D16 58                              	POP	EAX
  1293 00000D17 5A                              	POP	EDX
  1294 00000D18 74 20                           	JE	L123
  1295 00000D1A F6 43 20 20                     	TEST	BYTE [32+EBX],32
  1296 00000D1E 75 09                           	JNE	L124
  1297 00000D20                                 L121:
  1298 00000D20 8D 65 F8                        	LEA	ESP,DWORD [-8+EBP]
  1299 00000D23 89 F0                           	MOV	EAX,ESI
  1300 00000D25 5B                              	POP	EBX
  1301 00000D26 5E                              	POP	ESI
  1302 00000D27 5D                              	POP	EBP
  1303 00000D28 C3                              	RET
  1304 00000D29                                 L124:
  1305 00000D29 6A 02                           	PUSH	2
  1306 00000D2B 8B 43 24                        	MOV	EAX,DWORD [36+EBX]
  1307 00000D2E FF 70 78                        	PUSH	DWORD [120+EAX]
  1308 00000D31 E8 [00000000]                   	CALL	_fifo32_put
  1309 00000D36 59                              	POP	ECX
  1310 00000D37 5B                              	POP	EBX
  1311 00000D38 EB E6                           	JMP	L121
  1312 00000D3A                                 L123:
  1313 00000D3A BE 00000013                     	MOV	ESI,19
  1314 00000D3F EB DF                           	JMP	L121
  1315 00000D41                                 	GLOBAL	_memman
  1316                                          [SECTION .data]
  1317 0000017B 00                              	ALIGNB	4
  1318 0000017C                                 _memman:
  1319 0000017C 00 00 00 00                     	RESB	4
  1320 00000180                                 	GLOBAL	_mem_total
  1321                                          [SECTION .data]
  1322 00000180                                 	ALIGNB	4
  1323 00000180                                 _mem_total:
  1324 00000180 00 00 00 00                     	RESB	4
