     1 00000000                                 [FORMAT "WCOFF"]
     2 00000000                                 [INSTRSET "i486p"]
     3 00000000                                 [OPTIMIZE 1]
     4 00000000                                 [OPTION 1]
     5 00000000                                 [BITS 32]
     6 00000000                                 	EXTERN	_io_out8
     7 00000000                                 	EXTERN	_io_in8
     8 00000000                                 	EXTERN	_keydata0
     9 00000000                                 	EXTERN	_keyfifo
    10 00000000                                 	EXTERN	_fifo32_put
    11 00000000                                 	EXTERN	_mousedata0
    12 00000000                                 	EXTERN	_mousefifo
    13 00000000                                 	EXTERN	_task_now
    14 00000000                                 	EXTERN	_cons_putstr
    15 00000000                                 	EXTERN	_sprintf
    16 00000000                                 [FILE "int.c"]
    17                                          [SECTION .text]
    18 00000000                                 	GLOBAL	_init_pic
    19 00000000                                 _init_pic:
    20 00000000 55                              	PUSH	EBP
    21 00000001 89 E5                           	MOV	EBP,ESP
    22 00000003 68 000000FF                     	PUSH	255
    23 00000008 6A 21                           	PUSH	33
    24 0000000A E8 [00000000]                   	CALL	_io_out8
    25 0000000F 68 000000FF                     	PUSH	255
    26 00000014 68 000000A1                     	PUSH	161
    27 00000019 E8 [00000000]                   	CALL	_io_out8
    28 0000001E 6A 11                           	PUSH	17
    29 00000020 6A 20                           	PUSH	32
    30 00000022 E8 [00000000]                   	CALL	_io_out8
    31 00000027 6A 20                           	PUSH	32
    32 00000029 6A 21                           	PUSH	33
    33 0000002B E8 [00000000]                   	CALL	_io_out8
    34 00000030 83 C4 20                        	ADD	ESP,32
    35 00000033 6A 04                           	PUSH	4
    36 00000035 6A 21                           	PUSH	33
    37 00000037 E8 [00000000]                   	CALL	_io_out8
    38 0000003C 6A 01                           	PUSH	1
    39 0000003E 6A 21                           	PUSH	33
    40 00000040 E8 [00000000]                   	CALL	_io_out8
    41 00000045 6A 11                           	PUSH	17
    42 00000047 68 000000A0                     	PUSH	160
    43 0000004C E8 [00000000]                   	CALL	_io_out8
    44 00000051 6A 28                           	PUSH	40
    45 00000053 68 000000A1                     	PUSH	161
    46 00000058 E8 [00000000]                   	CALL	_io_out8
    47 0000005D 83 C4 20                        	ADD	ESP,32
    48 00000060 6A 02                           	PUSH	2
    49 00000062 68 000000A1                     	PUSH	161
    50 00000067 E8 [00000000]                   	CALL	_io_out8
    51 0000006C 6A 01                           	PUSH	1
    52 0000006E 68 000000A1                     	PUSH	161
    53 00000073 E8 [00000000]                   	CALL	_io_out8
    54 00000078 68 000000FB                     	PUSH	251
    55 0000007D 6A 21                           	PUSH	33
    56 0000007F E8 [00000000]                   	CALL	_io_out8
    57 00000084 68 000000FF                     	PUSH	255
    58 00000089 68 000000A1                     	PUSH	161
    59 0000008E E8 [00000000]                   	CALL	_io_out8
    60 00000093 C9                              	LEAVE
    61 00000094 C3                              	RET
    62 00000095                                 	GLOBAL	_inthandler21
    63 00000095                                 _inthandler21:
    64 00000095 55                              	PUSH	EBP
    65 00000096 89 E5                           	MOV	EBP,ESP
    66 00000098 6A 61                           	PUSH	97
    67 0000009A 6A 20                           	PUSH	32
    68 0000009C E8 [00000000]                   	CALL	_io_out8
    69 000000A1 6A 60                           	PUSH	96
    70 000000A3 E8 [00000000]                   	CALL	_io_in8
    71 000000A8 03 05 [00000000]                	ADD	EAX,DWORD [_keydata0]
    72 000000AE 50                              	PUSH	EAX
    73 000000AF FF 35 [00000000]                	PUSH	DWORD [_keyfifo]
    74 000000B5 E8 [00000000]                   	CALL	_fifo32_put
    75 000000BA C9                              	LEAVE
    76 000000BB C3                              	RET
    77 000000BC                                 	GLOBAL	_inthandler2c
    78 000000BC                                 _inthandler2c:
    79 000000BC 55                              	PUSH	EBP
    80 000000BD 89 E5                           	MOV	EBP,ESP
    81 000000BF 6A 64                           	PUSH	100
    82 000000C1 68 000000A0                     	PUSH	160
    83 000000C6 E8 [00000000]                   	CALL	_io_out8
    84 000000CB 6A 62                           	PUSH	98
    85 000000CD 6A 20                           	PUSH	32
    86 000000CF E8 [00000000]                   	CALL	_io_out8
    87 000000D4 6A 60                           	PUSH	96
    88 000000D6 E8 [00000000]                   	CALL	_io_in8
    89 000000DB 03 05 [00000000]                	ADD	EAX,DWORD [_mousedata0]
    90 000000E1 50                              	PUSH	EAX
    91 000000E2 FF 35 [00000000]                	PUSH	DWORD [_mousefifo]
    92 000000E8 E8 [00000000]                   	CALL	_fifo32_put
    93 000000ED C9                              	LEAVE
    94 000000EE C3                              	RET
    95 000000EF                                 	GLOBAL	_inthandler27
    96 000000EF                                 _inthandler27:
    97 000000EF 55                              	PUSH	EBP
    98 000000F0 89 E5                           	MOV	EBP,ESP
    99 000000F2 6A 67                           	PUSH	103
   100 000000F4 6A 20                           	PUSH	32
   101 000000F6 E8 [00000000]                   	CALL	_io_out8
   102 000000FB C9                              	LEAVE
   103 000000FC C3                              	RET
   104                                          [SECTION .data]
   105 00000000                                 LC0:
   106 00000000 0A 49 4E 54 20 30 43 20 3A 0A   	DB	0x0A,"INT 0C :",0x0A," Stack Exception.",0x0A,0x00
       0000000A 20 53 74 61 63 6B 20 45 78 63 
       00000014 65 70 74 69 6F 6E 2E 0A 00 
   107 0000001D                                 LC1:
   108 0000001D 45 49 50 20 3D 20 25 30 38 58   	DB	"EIP = %08X",0x0A,0x00
       00000027 0A 00 
   109                                          [SECTION .text]
   110 000000FD                                 	GLOBAL	_inthandler0c
   111 000000FD                                 _inthandler0c:
   112 000000FD 55                              	PUSH	EBP
   113 000000FE 89 E5                           	MOV	EBP,ESP
   114 00000100 57                              	PUSH	EDI
   115 00000101 56                              	PUSH	ESI
   116 00000102 53                              	PUSH	EBX
   117 00000103 8D 5D D4                        	LEA	EBX,DWORD [-44+EBP]
   118 00000106 83 EC 20                        	SUB	ESP,32
   119 00000109 8B 3D 00000FEC                  	MOV	EDI,DWORD [4076]
   120 0000010F E8 [00000000]                   	CALL	_task_now
   121 00000114 68 [00000000]                   	PUSH	LC0
   122 00000119 89 C6                           	MOV	ESI,EAX
   123 0000011B 57                              	PUSH	EDI
   124 0000011C 83 C6 14                        	ADD	ESI,20
   125 0000011F E8 [00000000]                   	CALL	_cons_putstr
   126 00000124 8B 45 08                        	MOV	EAX,DWORD [8+EBP]
   127 00000127 FF 70 2C                        	PUSH	DWORD [44+EAX]
   128 0000012A 68 [0000001D]                   	PUSH	LC1
   129 0000012F 53                              	PUSH	EBX
   130 00000130 E8 [00000000]                   	CALL	_sprintf
   131 00000135 53                              	PUSH	EBX
   132 00000136 57                              	PUSH	EDI
   133 00000137 E8 [00000000]                   	CALL	_cons_putstr
   134 0000013C 8D 65 F4                        	LEA	ESP,DWORD [-12+EBP]
   135 0000013F 5B                              	POP	EBX
   136 00000140 89 F0                           	MOV	EAX,ESI
   137 00000142 5E                              	POP	ESI
   138 00000143 5F                              	POP	EDI
   139 00000144 5D                              	POP	EBP
   140 00000145 C3                              	RET
   141                                          [SECTION .data]
   142 00000029                                 LC2:
   143 00000029 0A 49 4E 54 20 30 44 20 3A 0A   	DB	0x0A,"INT 0D :",0x0A," General Protected Exception.",0x0A,0x00
       00000033 20 47 65 6E 65 72 61 6C 20 50 
       0000003D 72 6F 74 65 63 74 65 64 20 45 
       00000047 78 63 65 70 74 69 6F 6E 2E 0A 
       00000051 00 
   144                                          [SECTION .text]
   145 00000146                                 	GLOBAL	_inthandler0d
   146 00000146                                 _inthandler0d:
   147 00000146 55                              	PUSH	EBP
   148 00000147 89 E5                           	MOV	EBP,ESP
   149 00000149 57                              	PUSH	EDI
   150 0000014A 56                              	PUSH	ESI
   151 0000014B 53                              	PUSH	EBX
   152 0000014C 8D 5D D4                        	LEA	EBX,DWORD [-44+EBP]
   153 0000014F 83 EC 20                        	SUB	ESP,32
   154 00000152 8B 3D 00000FEC                  	MOV	EDI,DWORD [4076]
   155 00000158 E8 [00000000]                   	CALL	_task_now
   156 0000015D 68 [00000029]                   	PUSH	LC2
   157 00000162 89 C6                           	MOV	ESI,EAX
   158 00000164 57                              	PUSH	EDI
   159 00000165 83 C6 14                        	ADD	ESI,20
   160 00000168 E8 [00000000]                   	CALL	_cons_putstr
   161 0000016D 8B 45 08                        	MOV	EAX,DWORD [8+EBP]
   162 00000170 FF 70 2C                        	PUSH	DWORD [44+EAX]
   163 00000173 68 [0000001D]                   	PUSH	LC1
   164 00000178 53                              	PUSH	EBX
   165 00000179 E8 [00000000]                   	CALL	_sprintf
   166 0000017E 53                              	PUSH	EBX
   167 0000017F 57                              	PUSH	EDI
   168 00000180 E8 [00000000]                   	CALL	_cons_putstr
   169 00000185 8D 65 F4                        	LEA	ESP,DWORD [-12+EBP]
   170 00000188 5B                              	POP	EBX
   171 00000189 89 F0                           	MOV	EAX,ESI
   172 0000018B 5E                              	POP	ESI
   173 0000018C 5F                              	POP	EDI
   174 0000018D 5D                              	POP	EBP
   175 0000018E C3                              	RET
   176 0000018F                                 	GLOBAL	_Allow_InterruptMask
   177 0000018F                                 _Allow_InterruptMask:
   178 0000018F 55                              	PUSH	EBP
   179 00000190 89 E5                           	MOV	EBP,ESP
   180 00000192 68 000000F8                     	PUSH	248
   181 00000197 6A 21                           	PUSH	33
   182 00000199 E8 [00000000]                   	CALL	_io_out8
   183 0000019E 68 000000EF                     	PUSH	239
   184 000001A3 68 000000A1                     	PUSH	161
   185 000001A8 E8 [00000000]                   	CALL	_io_out8
   186 000001AD C9                              	LEAVE
   187 000001AE C3                              	RET
